ccollections
defaultdict
p0
(c__builtin__
float
p1
tp2
Rp3
(VSENT
p4
VPP
p5
tp6
F0.0012101653892698668
s(VSENT
p7
VVPinf
p8
tp9
F0.00645421540943929
s(VVN
p10
VVPR
p11
tp12
F0.05325049922343022
s(VSENT
p13
VNPP
p14
tp15
F0.0004033884630899556
s(VSENT
p16
VAP
p17
tp18
F0.003630496167809601
s(VNP
p19
VNP
p20
tp21
F7.000840100812098e-05
s(VNP
p22
VDET
p23
tp24
F0.00021002520302436292
s(VPP
p25
VNP
p26
tp27
F0.000510073960724305
s(VNP
p28
VNC
p29
tp30
F0.1458975077009241
s(VNP
p31
VADJWH
p32
tp33
F0.00021002520302436292
s(VVPinf
p34
VVN
p35
tp36
F0.05755395683453238
s(VVN
p37
VVIMP
p38
tp39
F0.0039937874417572666
s(VAP
p40
VADJ
p41
tp42
F0.8265749456915279
s(VNP
p43
VADJ
p44
tp45
F0.0004900588070568468
s(VCOORD
p46
VVPpart
p47
tp48
F0.0006273525721455458
s(VPP
p49
VAdP
p50
tp51
F0.00012751849018107625
s(VAdP
p52
VADV
p53
tp54
F0.01904761904761905
s(VVPpart
p55
VVPP
p56
tp57
F0.14565217391304347
s(g26
VP+PRO
p58
tp59
F0.0002800336040324839
s(VVN
p60
VV
p61
tp62
F0.22631462169957844
s(VSENT
p63
VNP
p64
tp65
F0.11536910044372731
s(VPP
p66
VP
p67
tp68
F0.0006375924509053813
s(VNP
p69
VPROWH
p70
tp71
F0.0011901428171380566
s(VPP
p72
VPROREL
p73
tp74
F0.005993369038510584
s(VAP
p75
VADJWH
p76
tp77
F0.002896451846488052
s(VVN
p78
VVS
p79
tp80
F0.004215664521854893
s(VSint
p81
VVPpart
p82
tp83
F0.0036363636363636364
s(VAP
p84
VNC
p85
tp86
F0.0003620564808110065
s(VVPpart
p87
VVN
p88
tp89
F0.007608695652173913
s(VNP
p90
VET
p91
tp92
F0.0003500420050406049
s(VSint
p93
VVN
p94
tp95
F0.02181818181818182
s(VVN
p96
VVINF
p97
tp98
F0.18437985356112713
s(VSint
p99
VVPinf
p100
tp101
F0.0036363636363636364
s(VNP
p102
VNPP
p103
tp104
F0.06048725847101652
s(VSENT
p105
VCOORD
p106
tp107
F0.0004033884630899556
s(VAP
p108
VADV
p109
tp110
F0.000724112961622013
s(VNP
p111
VPROREL
p112
tp113
F0.028843461215345843
s(VCOORD
p114
VNP
p115
tp116
F0.0006273525721455458
s(VSENT
p117
VNC
p118
tp119
F0.0004033884630899556
s(VNP
p120
VPRO
p121
tp122
F0.01225147017642117
s.