c__builtin__
set
p0
((lp1
VPROWH
p2
aVV
p3
aVDET
p4
aVVIMP
p5
aVP+D
p6
aVPONCT
p7
aVVPP
p8
aVVPR
p9
aVPRO
p10
aVNC
p11
aVI
p12
aVP+PRO
p13
aVADV
p14
aVCLO
p15
aVCC
p16
aVVINF
p17
aVP
p18
aVADJWH
p19
aVADVWH
p20
aVCS
p21
aVET
p22
aVADJ
p23
aVCLR
p24
aVCLS
p25
aVDETWH
p26
aVPREF
p27
aVPROREL
p28
aVVS
p29
aVNPP
p30
atp31
Rp32
.