(dp0
(VVN
p1
VSENT|<ADV-COORD>
p2
tp3
(dp4
VSENT|<VN-ADV>
p5
F0.0049504950495049506
sVSENT
p6
F0.0004033884630899556
ss(VAP
p7
VAP|<PONCT-PP>
p8
tp9
(dp10
VAP|<AP-PONCT>
p11
F0.5
ss(VPRO
p12
VADV
p13
tp14
(dp15
VNP
p16
F0.0003500420050406049
ss(VADV
p17
VSint|<NP-PP>
p18
tp19
(dp20
VSint|<ADV-NP>
p21
F0.0625
ss(VVN
p22
VCOORD|<AP-Ssub>
p23
tp24
(dp25
VCOORD|<VN-AP>
p26
F0.2857142857142857
ss(VPONCT
p27
VSsub|<Sint-PONCT>
p28
tp29
(dp30
VSsub|<PONCT-Sint>
p31
F0.75
ss(VSsub
p32
VSsub|<PONCT-Ssub>
p33
tp34
(dp35
VSsub|<Ssub-PONCT>
p36
F0.23076923076923078
ss(VPP
p37
VSint|<PONCT-NP>
p38
tp39
(dp40
VSint
p41
F0.02181818181818182
sVSint|<PP-PONCT>
p42
F0.19230769230769232
ss(VCLS
p43
VVN|<V-VPP>
p44
tp45
(dp46
VVN
p47
F0.0299534058131795
ss(VAdP
p48
VSENT|<PONCT-VN>
p49
tp50
(dp51
VSENT
p52
F0.0012101653892698668
ss(VVN
p53
VVPinf|<COORD-NP>
p54
tp55
(dp56
VVPinf
p57
F0.0008992805755395684
ss(VET
p58
VET
p59
tp60
(dp61
VNP
p62
F7.000840100812098e-05
sVNP|<ET-ET>
p63
F0.19696969696969696
ss(VP
p64
VVPinf|<VN-AdP>
p65
tp66
(dp67
VVPinf
p68
F0.0044964028776978415
ss(VNP
p69
VSsub|<VN-PP>
p70
tp71
(dp72
VSsub|<NP-VN>
p73
F0.24
ss(VCS
p74
VSsub|<VPinf-PONCT>
p75
tp76
(dp77
VSsub
p78
F0.0017301038062283738
ss(VVN
p79
VSint|<NP-VPpart>
p80
tp81
(dp82
VSint|<VN-NP>
p83
F0.021739130434782608
ss(VADV
p84
VSsub|<ADV-PP>
p85
tp86
(dp87
VSsub|<ADV-ADV>
p88
F0.2
ss(VCC
p89
VCOORD|<ADV-PP>
p90
tp91
(dp92
VCOORD
p93
F0.012547051442910916
ss(VDETWH
p94
VNP|<NC-PP>
p95
tp96
(dp97
VNP
p98
F7.000840100812098e-05
ss(VVN
p99
VSsub|<ADV-Ssub>
p100
tp101
(dp102
VSsub|<VN-ADV>
p103
F0.012987012987012988
ss(VPP
p104
VNP|<PP-PONCT>
p105
tp106
(dp107
VNP|<PP-PP>
p108
F0.0658682634730539
ss(VPONCT
p109
VSint|<ADV-Ssub>
p110
tp111
(dp112
VSint|<PONCT-ADV>
p113
F0.5
ss(VVPinf
p114
VSENT|<PONCT-ADV>
p115
tp116
(dp117
VSENT|<VPinf-PONCT>
p118
F0.004597701149425287
ss(VCC
p119
VVPinf
p120
tp121
(dp122
VCOORD
p123
F0.030112923462986198
ss(VPP
p124
VNP|<NP-PONCT>
p125
tp126
(dp127
VNP|<PP-NP>
p128
F0.2222222222222222
ss(VNP
p129
VSENT|<Srel-PONCT>
p130
tp131
(dp132
VSENT|<NP-Srel>
p133
F1.0
ss(VADV
p134
VADJ
p135
tp136
(dp137
VAP|<ADV-ADJ>
p138
F0.5
sVAP
p139
F0.03946415640839971
sVNP|<ADV-ADJ>
p140
F0.6666666666666666
ss(VADV
p141
VNP|<PRO-VPpart>
p142
tp143
(dp144
VNP
p145
F7.000840100812098e-05
ss(VNP
p146
VCOORD|<PP-COORD>
p147
tp148
(dp149
VCOORD|<NP-PP>
p150
F0.05
ss(VSrel
p151
VCOORD
p152
tp153
(dp154
VNP|<Srel-COORD>
p155
F0.5
ss(VAdP
p156
VNP|<P-NP>
p157
tp158
(dp159
VNP
p160
F7.000840100812098e-05
ss(VADJ
p161
VAP|<PP-Ssub>
p162
tp163
(dp164
VAP|<ADJ-PP>
p165
F0.15789473684210525
ss(VVPinf
p166
VNP|<PONCT-VPpart>
p167
tp168
(dp169
VNP|<VPinf-PONCT>
p170
F0.14285714285714285
ss(VADV
p171
VCOORD|<PONCT-NP>
p172
tp173
(dp174
VCOORD|<ADV-PONCT>
p175
F0.5
ss(VNP
p176
VSENT|<PONCT-ET>
p177
tp178
(dp179
VSENT|<NP-PONCT>
p180
F0.0011441647597254005
ss(VPP
p181
VNP|<Srel-PONCT>
p182
tp183
(dp184
VNP|<PP-Srel>
p185
F0.04081632653061224
ss(VVN
p186
VSENT|<ADV-VPinf>
p187
tp188
(dp189
VSENT|<VN-ADV>
p190
F0.22277227722772278
sVSENT
p191
F0.00927793465106898
ss(VDET
p192
VNP
p193
tp194
(dp195
VNP
p196
F7.000840100812098e-05
ss(VAP
p197
VSENT|<ADV-PONCT>
p198
tp199
(dp200
VSENT|<AP-ADV>
p201
F0.5
ss(VPP
p202
VADV
p203
tp204
(dp205
VSsub|<PP-ADV>
p206
F1.0
sVVPpart|<PP-ADV>
p207
F1.0
ss(VAP
p208
VNP
p209
tp210
(dp211
VSrel|<AP-NP>
p212
F1.0
sVSsub|<AP-NP>
p213
F1.0
sVNP|<AP-NP>
p214
F0.625
sVSint|<AP-NP>
p215
F1.0
ss(VSint
p216
VVPinf
p217
tp218
(dp219
VCOORD|<Sint-VPinf>
p220
F1.0
ss(VPP
p221
VSENT|<PONCT-PP>
p222
tp223
(dp224
VSENT|<PP-PONCT>
p225
F0.06606606606606606
sVSENT
p226
F0.002016942315449778
ss(VVPpart
p227
VNP|<PONCT-PP>
p228
tp229
(dp230
VNP|<VPpart-PONCT>
p231
F0.11764705882352941
ss(VV
p232
VADV
p233
tp234
(dp235
VVN|<V-ADV>
p236
F0.02040816326530612
ss(VVN
p237
VSENT|<PP-PONCT>
p238
tp239
(dp240
VSENT
p241
F0.010488100040338847
sVSENT|<VN-PP>
p242
F0.5842391304347826
ss(VNPP
p243
VNP|<NPP-NP>
p244
tp245
(dp246
VNP
p247
F7.000840100812098e-05
ss(VNC
p248
VNP|<COORD-AP>
p249
tp250
(dp251
VNP
p252
F0.0002800336040324839
sVNP|<NC-COORD>
p253
F0.02
ss(VAdP
p254
VSENT|<PONCT-VPinf>
p255
tp256
(dp257
VSENT|<AdP-PONCT>
p258
F0.14285714285714285
ss(VVN
p259
VSrel|<AP-ADV>
p260
tp261
(dp262
VSrel|<VN-AP>
p263
F0.06666666666666667
ss(VVPpart
p264
VNP|<PP-PONCT>
p265
tp266
(dp267
VNP|<VPpart-PP>
p268
F0.043478260869565216
ss(VVPR
p269
VVPP
p270
tp271
(dp272
VVN|<VPR-VPP>
p273
F1.0
sVVN
p274
F0.005325049922343022
ss(VVPinf
p275
g113
tp276
(dp277
VSint|<VPinf-PONCT>
p278
F0.3333333333333333
ss(VNC
p279
VNP|<PONCT-NC>
p280
tp281
(dp282
VNP
p283
F0.0005600672080649678
sVNP|<NC-PONCT>
p284
F0.03636363636363636
ss(VAdP
p285
VSint|<NP-PONCT>
p286
tp287
(dp288
VSint|<AdP-NP>
p289
F0.5
ss(VADV
p290
VNP|<PRO-PP>
p291
tp292
(dp293
VNP
p294
F7.000840100812098e-05
ss(VDET
p295
VNP|<PRO-PONCT>
p296
tp297
(dp298
VNP|<DET-PRO>
p299
F1.0
ss(VADV
p300
VVN|<VPP-VPP>
p301
tp302
(dp303
VVN|<ADV-VPP>
p304
F0.1092896174863388
ss(VCOORD
p305
VSrel|<PONCT-COORD>
p306
tp307
(dp308
VSrel|<COORD-PONCT>
p309
F1.0
ss(VVN
p310
VSENT|<PP-AdP>
p311
tp312
(dp313
VSENT|<VN-PP>
p314
F0.002717391304347826
ss(VP+D
p315
VPP|<NP-PP>
p316
tp317
(dp318
VPP
p319
F0.00038255547054322876
ss(VNP
p320
VSENT|<VN-ADV>
p321
tp322
(dp323
VSENT|<NP-VN>
p324
F0.1227154046997389
sVSENT
p325
F0.0391286809197257
ss(VPONCT
p326
VNP|<PONCT-VPpart>
p327
tp328
(dp329
VNP|<PONCT-PONCT>
p330
F0.16666666666666666
ss(VDET
p331
VNP|<COORD-COORD>
p332
tp333
(dp334
VNP
p335
F0.00021002520302436292
ss(VPP
p336
VNP|<PP-COORD>
p337
tp338
(dp339
VNP|<PP-PP>
p340
F0.038922155688622756
ss(VVPinf
p341
VSrel|<NP-PONCT>
p342
tp343
(dp344
VSrel|<VPinf-NP>
p345
F0.25
ss(VNC
p346
VNP|<VPpart-PONCT>
p347
tp348
(dp349
VNP
p350
F0.00014001680201624196
sVNP|<NC-VPpart>
p351
F0.06472491909385113
ss(VVN
p352
VVPinf|<NP-AdP>
p353
tp354
(dp355
VVPinf
p356
F0.0008992805755395684
sVVPinf|<VN-NP>
p357
F0.002967359050445104
ss(VAdP
p358
VAP
p359
tp360
(dp361
VSsub|<AdP-AP>
p362
F1.0
ss(VVPP
p363
VCOORD
p364
tp365
(dp366
VVN|<VPP-COORD>
p367
F1.0
sVVPpart|<VPP-COORD>
p368
F1.0
sVVPpart
p369
F0.004347826086956522
ss(VNP
p370
VVPpart|<PP-PP>
p371
tp372
(dp373
VVPpart|<NP-PP>
p374
F0.03125
ss(VNP
p375
VSint|<VN-NP>
p376
tp377
(dp378
VSint|<NP-VN>
p379
F0.125
sVSint
p380
F0.08727272727272728
ss(VPRO
p381
VNP|<PP-VPpart>
p382
tp383
(dp384
VNP
p385
F7.000840100812098e-05
ss(VPONCT
p386
VSint|<ADV-PONCT>
p387
tp388
(dp389
VSint
p390
F0.01090909090909091
sVSint|<PONCT-ADV>
p391
F0.5
ss(VNP
p392
VVPinf|<PP-PP>
p393
tp394
(dp395
VVPinf|<NP-PP>
p396
F0.12030075187969924
ss(VNP
p397
g220
tp398
(dp399
VCOORD|<NP-Sint>
p400
F1.0
ss(VNP
p401
VSENT|<PONCT-COORD>
p402
tp403
(dp404
VSENT|<NP-PONCT>
p405
F0.020594965675057208
ss(VVN
p406
VSsub|<PONCT-PP>
p407
tp408
(dp409
VSsub|<VN-PONCT>
p410
F1.0
ss(VCOORD
p411
VNP|<PP-VPpart>
p412
tp413
(dp414
VNP|<COORD-PP>
p415
F0.02040816326530612
ss(VPONCT
p416
VSrel|<PP-PONCT>
p417
tp418
(dp419
VSrel|<PONCT-PP>
p420
F0.45
ss(VVPpart
p421
VSENT|<PONCT-VPpart>
p422
tp423
(dp424
VSENT|<VPpart-PONCT>
p425
F0.022727272727272728
sVSENT
p426
F0.0004033884630899556
ss(VCOORD
p427
VSsub
p428
tp429
(dp430
VPP|<COORD-Ssub>
p431
F1.0
sVNP|<COORD-Ssub>
p432
F1.0
ss(g64
VVPinf|<VN-VPinf>
p433
tp434
(dp435
VVPinf
p436
F0.01618705035971223
ss(VADV
p437
VSsub|<VN-ADV>
p438
tp439
(dp440
VSsub|<ADV-VN>
p441
F1.0
ss(VVN
p442
VSsub|<PP-VPinf>
p443
tp444
(dp445
VSsub|<VN-PP>
p446
F0.04854368932038835
ss(VDET
p447
VNP|<VPpart-NC>
p448
tp449
(dp450
VNP
p451
F7.000840100812098e-05
ss(VADV
p452
VSENT|<ADV-VPinf>
p453
tp454
(dp455
VSENT|<ADV-ADV>
p456
F0.2857142857142857
ss(VADJ
p457
VNP|<DET-DET>
p458
tp459
(dp460
VNP
p461
F7.000840100812098e-05
ss(VDET
p462
VNP|<NC-Ssub>
p463
tp464
(dp465
VNP
p466
F0.0003500420050406049
ss(VNPP
p467
VNP|<PONCT-PP>
p468
tp469
(dp470
VNP
p471
F0.00021002520302436292
sVNP|<NPP-PONCT>
p472
F0.01775147928994083
ss(VSsub
p473
VSsub|<PONCT-VN>
p474
tp475
(dp476
VSsub|<Ssub-PONCT>
p477
F0.3076923076923077
ss(VPP
p478
VSENT|<PP-COORD>
p479
tp480
(dp481
VSENT|<PP-PP>
p482
F0.07086614173228346
ss(VVPinf
p483
VSsub|<PONCT-PP>
p484
tp485
(dp486
VSsub|<VPinf-PONCT>
p487
F0.2
ss(VDET
p488
VNP|<NPP-VPpart>
p489
tp490
(dp491
VNP
p492
F0.00042005040604872583
ss(VNC
p493
VNP|<AP-Ssub>
p494
tp495
(dp496
VNP|<NC-AP>
p497
F0.0041390728476821195
ss(VADV
p498
VVN|<V-ADV>
p499
tp500
(dp501
VVN
p502
F0.010650099844686045
sVVN|<ADV-V>
p503
F0.1282051282051282
ss(VVPinf
p504
VSsub|<PONCT-COORD>
p505
tp506
(dp507
VSsub|<VPinf-PONCT>
p508
F0.06666666666666667
ss(VVN
p509
VSsub|<AP-Ssub>
p510
tp511
(dp512
VSsub|<VN-AP>
p513
F0.06976744186046512
ss(VDET
p514
VNP|<PREF-NPP>
p515
tp516
(dp517
VNP
p518
F7.000840100812098e-05
ss(VPONCT
p519
VSENT|<NP-PP>
p520
tp521
(dp522
VSENT|<PONCT-NP>
p523
F0.013123359580052493
sVSENT
p524
F0.0008067769261799112
ss(VPONCT
p525
VSrel|<VN-ADV>
p526
tp527
(dp528
VSrel|<PONCT-VN>
p529
F0.2
ss(VAP
p530
VNP|<PP-COORD>
p531
tp532
(dp533
VNP|<AP-PP>
p534
F0.02335456475583864
ss(VAP
p535
VSrel
p536
tp537
(dp538
VNP|<AP-Srel>
p539
F0.8888888888888888
ss(VCLO
p540
VVN|<VINF-VPP>
p541
tp542
(dp543
VVN
p544
F0.0006656312402928778
ss(VPONCT
p545
VNP|<NC-PP>
p546
tp547
(dp548
VNP
p549
F0.0014001680201624195
sVNP|<PONCT-NC>
p550
F0.14893617021276595
ss(g64
VPP|<PONCT-PP>
p551
tp552
(dp553
VPP
p554
F0.0002550369803621525
ss(VNP
p555
VSENT|<NP-VN>
p556
tp557
(dp558
VSENT|<NP-NP>
p559
F0.041666666666666664
sVSENT
p560
F0.0012101653892698668
ss(VADV
p561
VSENT|<PONCT-VN>
p562
tp563
(dp564
VSENT|<ADV-PONCT>
p565
F0.17857142857142858
sVSENT
p566
F0.010891488503428802
ss(VPP
p567
g258
tp568
(dp569
g311
F1.0
ss(VADV
p570
VSint|<NP-VN>
p571
tp572
(dp573
VSint
p574
F0.01090909090909091
ss(VCS
p575
VSsub|<PONCT-Ssub>
p576
tp577
(dp578
VSsub
p579
F0.0017301038062283738
ss(VADV
p580
VSENT|<VPinf-PONCT>
p581
tp582
(dp583
g187
F0.9452054794520548
ss(VADV
p584
VVPinf|<VN-PP>
p585
tp586
(dp587
VVPinf
p588
F0.0008992805755395684
sVVPinf|<ADV-VN>
p589
F0.42857142857142855
ss(VPONCT
p590
VSENT|<PONCT-Sint>
p591
tp592
(dp593
VSENT|<PONCT-PONCT>
p594
F0.10909090909090909
ss(VADV
p595
VVN|<CLO-VPR>
p596
tp597
(dp598
VVN
p599
F0.00022187708009762592
ss(VNC
p600
VNP|<AP-PRO>
p601
tp602
(dp603
VNP|<NC-AP>
p604
F0.0008278145695364238
ss(g64
VVPinf|<ADV-VN>
p605
tp606
(dp607
VVPinf
p608
F0.012589928057553957
ss(VNP
p609
VSsub|<PONCT-Ssub>
p610
tp611
(dp612
VSsub|<NP-PONCT>
p613
F0.07317073170731707
ss(VADV
p614
VSint|<PP-PONCT>
p615
tp616
(dp617
VSint|<ADV-PP>
p618
F0.5
ss(VADV
p619
VSENT|<AP-Ssub>
p620
tp621
(dp622
VSENT|<ADV-AP>
p623
F0.07142857142857142
ss(VCS
p624
VSsub|<VN-COORD>
p625
tp626
(dp627
VSsub
p628
F0.0034602076124567475
ss(VAdP
p629
VNP|<P-NC>
p630
tp631
(dp632
VNP
p633
F0.00021002520302436292
ss(VNP
p634
VSENT|<PONCT-PP>
p635
tp636
(dp637
VSENT
p638
F0.004840661557079467
sVSENT|<NP-PONCT>
p639
F0.02745995423340961
ss(VVN
p640
VVPinf|<ADV-Ssub>
p641
tp642
(dp643
VVPinf|<VN-ADV>
p644
F0.10526315789473684
sVVPinf
p645
F0.0017985611510791368
ss(g64
VPP
p646
tp647
(dp648
VPP
p649
F0.0011476664116296864
ss(VDET
p650
VNP|<ADJ-COORD>
p651
tp652
(dp653
VNP
p654
F7.000840100812098e-05
ss(VVN
p655
VSENT|<ADV-Ssub>
p656
tp657
(dp658
VSENT|<VN-ADV>
p659
F0.024752475247524754
sVSENT
p660
F0.004840661557079467
ss(VVN
p661
g212
tp662
(dp663
VSrel|<VN-AP>
p664
F0.06666666666666667
ss(VPONCT
p665
VAdP
p666
tp667
(dp668
VSrel|<PONCT-AdP>
p669
F1.0
ss(VADV
p670
VVN|<ADV-VPP>
p671
tp672
(dp673
VVN|<ADV-ADV>
p674
F1.0
ss(VPONCT
p675
VSsub|<CS-NP>
p676
tp677
(dp678
VSsub
p679
F0.0017301038062283738
ss(VAP
p680
VPRO
p681
tp682
(dp683
g601
F1.0
ss(VNP
p684
VSsub|<PP-PP>
p685
tp686
(dp687
VSsub|<NP-PP>
p688
F0.05714285714285714
ss(VAP
p689
VADV
p690
tp691
(dp692
VNP|<AP-ADV>
p693
F1.0
ss(VCOORD
p694
VNP
p695
tp696
(dp697
g54
F1.0
sVSsub|<COORD-NP>
p698
F1.0
sVVPpart|<COORD-NP>
p699
F1.0
sVPP|<COORD-NP>
p700
F1.0
ss(VVPpart
p701
VSENT|<NP-VN>
p702
tp703
(dp704
VSENT
p705
F0.0004033884630899556
ss(VPONCT
p706
VSsub|<COORD-VN>
p707
tp708
(dp709
VSsub|<PONCT-COORD>
p710
F0.08333333333333333
ss(VPP
p711
VVPinf|<VN-ADV>
p712
tp713
(dp714
VVPinf
p715
F0.0008992805755395684
ss(VCC
p716
VCOORD|<VPpart-COORD>
p717
tp718
(dp719
VCOORD
p720
F0.0006273525721455458
ss(VADJ
p721
VNP|<DET-NPP>
p722
tp723
(dp724
VNP
p725
F0.0004900588070568468
ss(VAdP
p726
VSENT|<PONCT-Sint>
p727
tp728
(dp729
VSENT|<AdP-PONCT>
p730
F0.14285714285714285
ss(VVN
p731
VSsub|<NP-NP>
p732
tp733
(dp734
VSsub|<VN-NP>
p735
F0.006535947712418301
ss(VPONCT
p736
VNP|<ADV-AP>
p737
tp738
(dp739
VNP|<PONCT-ADV>
p740
F0.08695652173913043
ss(VCOORD
p741
VPP|<COORD-COORD>
p742
tp743
(dp744
VPP|<COORD-COORD>
p745
F0.20512820512820512
ss(VVN
p746
VSint|<PONCT-Ssub>
p747
tp748
(dp749
VSint
p750
F0.0036363636363636364
ss(VADV
p751
VVPinf|<PP-COORD>
p752
tp753
(dp754
VVPinf|<ADV-PP>
p755
F0.2222222222222222
ss(VVN
p756
VSint|<PONCT-PP>
p757
tp758
(dp759
VSint
p760
F0.0036363636363636364
ss(g232
VVN|<VPP-VINF>
p761
tp762
(dp763
VVN|<V-VPP>
p764
F0.004347826086956522
sVVN
p765
F0.0006656312402928778
ss(VVN
p766
VVPpart|<PONCT-COORD>
p767
tp768
(dp769
VVPpart
p770
F0.0010869565217391304
ss(VVPpart
p771
VSrel|<PONCT-VN>
p772
tp773
(dp774
VSrel|<VPpart-PONCT>
p775
F0.6666666666666666
ss(VPP
p776
VVPinf
p777
tp778
(dp779
VAP|<PP-VPinf>
p780
F1.0
sVSint|<PP-VPinf>
p781
F1.0
sVCOORD|<PP-VPinf>
p782
F1.0
sVVPinf|<PP-VPinf>
p783
F1.0
sVVPpart|<PP-VPinf>
p784
F0.75
sVNP|<PP-VPinf>
p785
F1.0
sVSENT|<PP-VPinf>
p786
F0.038461538461538464
sg443
F0.6666666666666666
sVSrel|<PP-VPinf>
p787
F1.0
sVPP|<PP-VPinf>
p788
F1.0
ss(VAdP
p789
VSint|<PONCT-PP>
p790
tp791
(dp792
VSint|<AdP-PONCT>
p793
F0.5
ss(VNC
p794
VNP|<VPpart-VPinf>
p795
tp796
(dp797
VNP
p798
F7.000840100812098e-05
sVNP|<NC-VPpart>
p799
F0.003236245954692557
ss(VVN
p800
VSrel|<ADV-PP>
p801
tp802
(dp803
VSrel|<VN-ADV>
p804
F0.288135593220339
ss(VCC
p805
VCOORD|<ADV-NP>
p806
tp807
(dp808
VCOORD
p809
F0.009410288582183186
ss(VVN
p810
VVPinf|<AP-COORD>
p811
tp812
(dp813
VVPinf
p814
F0.0017985611510791368
ss(VAP
p815
VVPpart|<PONCT-PP>
p816
tp817
(dp818
VVPpart|<AP-PONCT>
p819
F1.0
ss(VVINF
p820
VVPP
p821
tp822
(dp823
g541
F1.0
sVVN
p824
F0.028178389172398493
ss(VPP
p825
VVPinf|<PP-COORD>
p826
tp827
(dp828
VVPinf|<PP-PP>
p829
F0.024390243902439025
ss(VPONCT
p830
VSsub|<NP-PONCT>
p831
tp832
(dp833
VSsub|<PONCT-NP>
p834
F0.1891891891891892
ss(VNP
p835
VSrel|<Ssub-PONCT>
p836
tp837
(dp838
VSrel|<NP-Ssub>
p839
F0.5
ss(VVPinf
p840
VSsub|<NP-VPinf>
p841
tp842
(dp843
VSsub|<VPinf-NP>
p844
F0.3333333333333333
ss(VPONCT
p845
VNP|<PONCT-Srel>
p846
tp847
(dp848
VNP|<PONCT-PONCT>
p849
F0.1111111111111111
ss(VCOORD
p850
VNP|<COORD-NC>
p851
tp852
(dp853
g332
F0.017341040462427744
ss(VVPpart
p854
VSrel
p855
tp856
(dp857
VNP|<VPpart-Srel>
p858
F1.0
ss(VET
p859
VNP|<NPP-COORD>
p860
tp861
(dp862
VNP|<ET-NPP>
p863
F0.16666666666666666
ss(VVN
p864
VSint|<AdP-Ssub>
p865
tp866
(dp867
VSint
p868
F0.0036363636363636364
ss(VPP
p869
VNP|<Ssub-COORD>
p870
tp871
(dp872
VNP|<PP-Ssub>
p873
F0.3333333333333333
ss(VPP
p874
VNP|<AP-NPP>
p875
tp876
(dp877
VNP|<PP-AP>
p878
F0.01639344262295082
ss(VCS
p879
VSsub|<NP-VN>
p880
tp881
(dp882
VSsub|<CS-NP>
p883
F1.0
sVSsub
p884
F0.40484429065743943
ss(VVPinf
p885
VSENT|<PONCT-COORD>
p886
tp887
(dp888
VSENT|<VPinf-PONCT>
p889
F0.02528735632183908
ss(g64
VPP|<PP-NP>
p890
tp891
(dp892
VPP
p893
F0.0002550369803621525
ss(VAP
p894
VNP|<AP-COORD>
p895
tp896
(dp897
VNP|<AP-AP>
p898
F0.006097560975609756
ss(VNP
p899
VSENT|<PONCT-Srel>
p900
tp901
(dp902
VSENT|<NP-PONCT>
p903
F0.0011441647597254005
ss(VVPinf
p904
VNP|<PONCT-VPinf>
p905
tp906
(dp907
VNP|<VPinf-PONCT>
p908
F0.42857142857142855
ss(VVN
p909
VSENT|<NP-ADV>
p910
tp911
(dp912
VSENT|<VN-NP>
p913
F0.007894736842105263
ss(VVPP
p914
VVPpart|<NP-PP>
p915
tp916
(dp917
VVPpart
p918
F0.006521739130434782
sVVPpart|<VPP-NP>
p919
F0.3333333333333333
ss(VADV
p920
VNP|<NC-PP>
p921
tp922
(dp923
VNP
p924
F0.00014001680201624196
ss(VADJWH
p925
VNC
p926
tp927
(dp928
VNP
p929
F7.000840100812098e-05
ss(VCOORD
p930
VNP|<PP-COORD>
p931
tp932
(dp933
VNP|<COORD-PP>
p934
F0.02040816326530612
ss(VVN
p935
VSrel|<NP-NP>
p936
tp937
(dp938
VSrel|<VN-NP>
p939
F0.015151515151515152
ss(VDET
p940
VAdP|<ADV-ADV>
p941
tp942
(dp943
VAdP
p944
F0.02857142857142857
ss(VPP
p945
VCOORD|<PONCT-VPinf>
p946
tp947
(dp948
VCOORD|<PP-PONCT>
p949
F0.08333333333333333
ss(VPONCT
p950
VAP
p951
tp952
(dp953
VNP|<PONCT-AP>
p954
F0.5925925925925926
sVCOORD
p955
F0.005018820577164366
sVSint|<PONCT-AP>
p956
F1.0
sVSrel|<PONCT-AP>
p957
F1.0
sVCOORD|<PONCT-AP>
p958
F1.0
sVSsub|<PONCT-AP>
p959
F1.0
sVVPinf|<PONCT-AP>
p960
F1.0
ss(VPONCT
p961
VSENT|<PONCT-Ssub>
p962
tp963
(dp964
VSENT|<PONCT-PONCT>
p965
F0.00909090909090909
ss(VVN
p966
VSrel|<ADV-VPinf>
p967
tp968
(dp969
VSrel|<VN-ADV>
p970
F0.05084745762711865
ss(VVPinf
p971
VSENT|<PONCT-VN>
p972
tp973
(dp974
VSENT
p975
F0.0028237192416296895
ss(VSint
p976
VSENT|<VN-PONCT>
p977
tp978
(dp979
VSENT|<Sint-VN>
p980
F0.5
ss(VVN
p981
VVPinf|<AP-Ssub>
p982
tp983
(dp984
VVPinf
p985
F0.0008992805755395684
ss(VCOORD
p986
VSENT|<PONCT-NP>
p987
tp988
(dp989
VSENT|<COORD-PONCT>
p990
F0.019417475728155338
ss(VPP
p991
VSsub|<VN-COORD>
p992
tp993
(dp994
VSsub
p995
F0.0017301038062283738
ss(VNC
p996
VNPP
p997
tp998
(dp999
VNP
p1000
F0.005390646877625315
sVNP|<NC-NPP>
p1001
F0.5540540540540541
ss(VAdP
p1002
VSENT|<VPinf-PONCT>
p1003
tp1004
(dp1005
VSENT|<AdP-VPinf>
p1006
F1.0
ss(VCOORD
p1007
VNP|<PONCT-AP>
p1008
tp1009
(dp1010
VNP|<COORD-PONCT>
p1011
F0.027777777777777776
ss(VNP
p1012
VSrel|<VN-NP>
p1013
tp1014
(dp1015
VSrel|<NP-VN>
p1016
F0.23076923076923078
sVSrel
p1017
F0.2129032258064516
ss(VADJ
p1018
VNP|<PP-PP>
p1019
tp1020
(dp1021
VNP|<ADJ-PP>
p1022
F0.5
ss(VVN
p1023
VSsub|<AP-COORD>
p1024
tp1025
(dp1026
VSsub|<VN-AP>
p1027
F0.09302325581395349
ss(VPONCT
p1028
VNP|<NC-NPP>
p1029
tp1030
(dp1031
VNP
p1032
F7.000840100812098e-05
sVNP|<PONCT-NC>
p1033
F0.0425531914893617
ss(VADV
p1034
VAP|<ADJ-Ssub>
p1035
tp1036
(dp1037
VAP
p1038
F0.002896451846488052
ss(VCLS
p1039
VVPP
p1040
tp1041
(dp1042
VVN|<CLS-VPP>
p1043
F0.9090909090909091
ss(VCC
p1044
VNPP
p1045
tp1046
(dp1047
VCOORD
p1048
F0.0006273525721455458
ss(VVN
p1049
VVPpart|<PONCT-ADV>
p1050
tp1051
(dp1052
VVPpart
p1053
F0.0010869565217391304
ss(VNP
p1054
VNP|<PONCT-COORD>
p1055
tp1056
(dp1057
VNP|<NP-PONCT>
p1058
F0.07017543859649122
ss(VADJ
p1059
VNP|<NPP-PONCT>
p1060
tp1061
(dp1062
VNP|<ADJ-NPP>
p1063
F0.09090909090909091
ss(VNPP
p1064
VNP|<AP-PONCT>
p1065
tp1066
(dp1067
VNP
p1068
F0.00014001680201624196
sVNP|<NPP-AP>
p1069
F0.0273972602739726
ss(VPP
p1070
VSrel|<VN-PONCT>
p1071
tp1072
(dp1073
VSrel
p1074
F0.004301075268817204
ss(VPP
p1075
VPONCT
p1076
tp1077
(dp1078
VSENT|<PP-PONCT>
p1079
F0.6456456456456456
sVAP|<PP-PONCT>
p1080
F0.125
sVNP|<PP-PONCT>
p1081
F0.14606741573033707
sVVPpart|<PP-PONCT>
p1082
F0.18181818181818182
sVSint|<PP-PONCT>
p1083
F0.38461538461538464
sVSsub|<PP-PONCT>
p1084
F0.11627906976744186
sVVPinf|<PP-PONCT>
p1085
F0.1
sVPP|<PP-PONCT>
p1086
F0.25
sVSENT
p1087
F0.0028237192416296895
ss(VAP
p1088
VSENT|<PONCT-Sint>
p1089
tp1090
(dp1091
VSENT|<AP-PONCT>
p1092
F0.015384615384615385
ss(VVN
p1093
VVPinf|<NP-VPinf>
p1094
tp1095
(dp1096
VVPinf
p1097
F0.008093525179856115
sVVPinf|<VN-NP>
p1098
F0.04451038575667656
ss(VCLO
p1099
VVN|<V-AdP>
p1100
tp1101
(dp1102
VVN|<CLO-V>
p1103
F0.013333333333333334
ss(VPP
p1104
g1016
tp1105
(dp1106
VSrel|<PP-NP>
p1107
F0.125
sVSrel
p1108
F0.05591397849462366
ss(VPP
p1109
VVPpart|<COORD-PONCT>
p1110
tp1111
(dp1112
VVPpart|<PP-COORD>
p1113
F0.1111111111111111
ss(VADV
p1114
VSsub|<NP-VPinf>
p1115
tp1116
(dp1117
VSsub|<ADV-NP>
p1118
F0.058823529411764705
ss(VADJ
p1119
VNC
p1120
tp1121
(dp1122
VNP|<ADJ-NC>
p1123
F0.40433925049309666
sVNP
p1124
F0.00644077289274713
ss(VAdP
p1125
VSrel|<PONCT-VPpart>
p1126
tp1127
(dp1128
VSrel|<AdP-PONCT>
p1129
F0.5
ss(VVN
p1130
VVPinf|<NP-COORD>
p1131
tp1132
(dp1133
VVPinf
p1134
F0.0044964028776978415
sVVPinf|<VN-NP>
p1135
F0.05341246290801187
ss(VPONCT
p1136
VNP|<PP-COORD>
p1137
tp1138
(dp1139
VNP|<PONCT-PP>
p1140
F0.018691588785046728
ss(VNP
p1141
VVN
p1142
tp1143
(dp1144
VSrel|<NP-VN>
p1145
F0.07692307692307693
sVSrel
p1146
F0.07741935483870968
sVSENT|<NP-VN>
p1147
F0.0026109660574412533
sVSsub
p1148
F0.0017301038062283738
sVSsub|<NP-VN>
p1149
F0.06181818181818182
sVSint|<NP-VN>
p1150
F0.041666666666666664
sVSint
p1151
F0.01818181818181818
sVVPinf
p1152
F0.0008992805755395684
ss(VADV
p1153
VSsub|<ADV-PONCT>
p1154
tp1155
(dp1156
VSsub|<ADV-ADV>
p1157
F0.2
ss(VPP
p1158
VNP|<PONCT-VPpart>
p1159
tp1160
(dp1161
VNP|<PP-PONCT>
p1162
F0.15355805243445692
ss(g64
VADJ
p1163
tp1164
(dp1165
VPP
p1166
F0.00012751849018107625
ss(VVPP
p1167
VAP
p1168
tp1169
(dp1170
VVPpart
p1171
F0.0010869565217391304
ss(VVN
p1172
g213
tp1173
(dp1174
VSsub|<VN-AP>
p1175
F0.023255813953488372
ss(VNP
p1176
VPP|<PONCT-ADV>
p1177
tp1178
(dp1179
VPP|<NP-PONCT>
p1180
F0.0392156862745098
ss(VNP
p1181
VSint|<PONCT-NP>
p1182
tp1183
(dp1184
VSint|<NP-PONCT>
p1185
F0.23076923076923078
ss(VAP
p1186
VSENT|<NP-PONCT>
p1187
tp1188
(dp1189
VSENT|<AP-NP>
p1190
F0.5
ss(VNC
p1191
VNP|<PP-NP>
p1192
tp1193
(dp1194
VNP
p1195
F0.00021002520302436292
sVNP|<NC-PP>
p1196
F0.00548195523069895
ss(VPONCT
p1197
VSENT|<ADV-NP>
p1198
tp1199
(dp1200
g115
F0.21428571428571427
ss(VADV
p1201
VSENT|<ADV-NP>
p1202
tp1203
(dp1204
VSENT|<ADV-ADV>
p1205
F0.35714285714285715
ss(VADV
p1206
VSsub|<NP-VN>
p1207
tp1208
(dp1209
VSsub|<ADV-NP>
p1210
F0.058823529411764705
ss(VCLS
p1211
VVN|<V-COORD>
p1212
tp1213
(dp1214
VVN
p1215
F0.0011093854004881295
ss(VNP
p1216
VPP|<PONCT-COORD>
p1217
tp1218
(dp1219
VPP|<NP-PONCT>
p1220
F0.5686274509803921
ss(VPONCT
p1221
VAP|<VPpart-PONCT>
p1222
tp1223
(dp1224
VAP|<PONCT-VPpart>
p1225
F1.0
ss(VDET
p1226
VNP|<DET-P>
p1227
tp1228
(dp1229
g458
F1.0
ss(VPONCT
p1230
VSENT|<AdP-PONCT>
p1231
tp1232
(dp1233
VSENT|<PONCT-AdP>
p1234
F0.5
ss(VPP
p1235
VNP|<PONCT-COORD>
p1236
tp1237
(dp1238
VNP|<PP-PONCT>
p1239
F0.07865168539325842
ss(VPONCT
p1240
VNP|<VPpart-Srel>
p1241
tp1242
(dp1243
VNP|<PONCT-VPpart>
p1244
F0.008403361344537815
ss(VVPP
p1245
VVPpart|<ADV-PP>
p1246
tp1247
(dp1248
VVPpart
p1249
F0.004347826086956522
sVVPpart|<VPP-ADV>
p1250
F0.5
ss(VVN
p1251
VCOORD|<ADV-NP>
p1252
tp1253
(dp1254
VCOORD|<VN-ADV>
p1255
F0.35294117647058826
ss(VNP
p1256
VSENT|<PONCT-ADV>
p1257
tp1258
(dp1259
VSENT|<NP-PONCT>
p1260
F0.003432494279176201
sVSENT
p1261
F0.0004033884630899556
ss(VPP
p1262
VNP|<PONCT-Ssub>
p1263
tp1264
(dp1265
VNP|<PP-PONCT>
p1266
F0.003745318352059925
ss(VADJ
p1267
VVPinf
p1268
tp1269
(dp1270
VAP
p1271
F0.007965242577842143
sVAP|<ADJ-VPinf>
p1272
F1.0
sVNP|<ADJ-VPinf>
p1273
F1.0
ss(VADV
p1274
VSrel|<PP-VPinf>
p1275
tp1276
(dp1277
VSrel|<ADV-PP>
p1278
F0.05555555555555555
ss(VADV
p1279
VSENT|<AP-VPinf>
p1280
tp1281
(dp1282
VSENT|<ADV-AP>
p1283
F0.14285714285714285
ss(VPONCT
p1284
VNP|<Srel-PONCT>
p1285
tp1286
(dp1287
VNP|<PONCT-Srel>
p1288
F0.07
ss(g232
VCLS
p1289
tp1290
(dp1291
VVN|<V-CLS>
p1292
F1.0
sVVN
p1293
F0.005103172842245396
ss(VPONCT
p1294
VPP|<COORD-COORD>
p1295
tp1296
(dp1297
VPP|<PONCT-COORD>
p1298
F0.02857142857142857
ss(VNPP
p1299
VPONCT
p1300
tp1301
(dp1302
VNP
p1303
F7.000840100812098e-05
sVSENT|<NPP-PONCT>
p1304
F1.0
sVNP|<NPP-PONCT>
p1305
F0.04142011834319527
ss(VPP
p1306
VPP|<PONCT-NP>
p1307
tp1308
(dp1309
VPP|<PP-PONCT>
p1310
F0.5
ss(VADV
p1311
VVPinf|<NP-Ssub>
p1312
tp1313
(dp1314
VVPinf|<ADV-NP>
p1315
F0.045454545454545456
ss(VCC
p1316
VADJ
p1317
tp1318
(dp1319
VCOORD
p1320
F0.0012547051442910915
ss(VNP
p1321
VNP|<PONCT-AP>
p1322
tp1323
(dp1324
VNP|<NP-PONCT>
p1325
F0.007017543859649123
ss(VPONCT
p1326
VSsub|<VN-ADV>
p1327
tp1328
(dp1329
VSsub|<PONCT-VN>
p1330
F0.16129032258064516
ss(VADV
p1331
VPP
p1332
tp1333
(dp1334
g90
F0.9090909090909091
sg1246
F0.7272727272727273
sVAdP
p1335
F0.06666666666666667
sg801
F0.7777777777777778
sVSint|<ADV-PP>
p1336
F0.5
sVNP|<ADV-PP>
p1337
F0.8461538461538461
sVAP|<ADV-PP>
p1338
F1.0
sVSENT|<ADV-PP>
p1339
F0.017241379310344827
sVAdP|<ADV-PP>
p1340
F1.0
sVVPinf|<ADV-PP>
p1341
F0.6666666666666666
sVSsub|<ADV-PP>
p1342
F0.6
ss(VNP
p1343
VSsub|<PONCT-VPpart>
p1344
tp1345
(dp1346
VSsub|<NP-PONCT>
p1347
F0.024390243902439025
ss(VPONCT
p1348
VSENT|<PONCT-NP>
p1349
tp1350
(dp1351
VSENT
p1352
F0.008067769261799113
sVSENT|<PONCT-PONCT>
p1353
F0.12727272727272726
ss(VCLS
p1354
VVN|<ADV-CLR>
p1355
tp1356
(dp1357
VVN
p1358
F0.00044375416019525185
ss(VADJ
p1359
VAP|<COORD-COORD>
p1360
tp1361
(dp1362
VAP
p1363
F0.0025343953656770456
sVAP|<ADJ-COORD>
p1364
F0.16666666666666666
ss(VADV
p1365
VVPinf|<PP-PP>
p1366
tp1367
(dp1368
VVPinf|<ADV-PP>
p1369
F0.1111111111111111
ss(VVPinf
p1370
VSsub|<PONCT-NP>
p1371
tp1372
(dp1373
VSsub|<VPinf-PONCT>
p1374
F0.2
ss(VPONCT
p1375
VVPpart|<PONCT-PONCT>
p1376
tp1377
(dp1378
VVPpart|<PONCT-PONCT>
p1379
F0.5
ss(VPP
p1380
g957
tp1381
(dp1382
VSrel|<PP-PONCT>
p1383
F0.05263157894736842
ss(VPP
p1384
VSint|<VN-AP>
p1385
tp1386
(dp1387
VSint
p1388
F0.0036363636363636364
ss(VVN
p1389
VCOORD|<PONCT-VPpart>
p1390
tp1391
(dp1392
VCOORD|<VN-PONCT>
p1393
F0.5
ss(VCOORD
p1394
VNP|<PP-PP>
p1395
tp1396
(dp1397
VNP|<COORD-PP>
p1398
F0.02040816326530612
ss(VVPP
p1399
g784
tp1400
(dp1401
VVPpart
p1402
F0.002173913043478261
ss(VADVWH
p1403
VVPinf|<VN-NP>
p1404
tp1405
(dp1406
VVPinf
p1407
F0.00539568345323741
ss(VPONCT
p1408
VNP|<ADJ-NC>
p1409
tp1410
(dp1411
VNP
p1412
F7.000840100812098e-05
sVNP|<PONCT-ADJ>
p1413
F1.0
ss(VPONCT
p1414
VNP|<PP-PONCT>
p1415
tp1416
(dp1417
VNP|<PONCT-PP>
p1418
F0.2616822429906542
ss(VVN
p1419
VSENT|<AdP-NP>
p1420
tp1421
(dp1422
VSENT|<VN-AdP>
p1423
F0.08333333333333333
sVSENT
p1424
F0.0004033884630899556
ss(VVN
p1425
VCOORD|<AP-PP>
p1426
tp1427
(dp1428
VCOORD|<VN-AP>
p1429
F0.14285714285714285
ss(VADV
p1430
VCOORD|<VPinf-PONCT>
p1431
tp1432
(dp1433
VCOORD|<ADV-VPinf>
p1434
F0.25
ss(VCLS
p1435
VVN|<ADV-V>
p1436
tp1437
(dp1438
VVN
p1439
F0.01730641224761482
ss(VPONCT
p1440
VSrel|<NP-PONCT>
p1441
tp1442
(dp1443
VSrel|<PONCT-NP>
p1444
F0.6666666666666666
ss(VCS
p1445
VSsub|<ADV-PONCT>
p1446
tp1447
(dp1448
VSsub
p1449
F0.0034602076124567475
ss(VVN
p1450
VSsub|<PP-COORD>
p1451
tp1452
(dp1453
g70
F0.02912621359223301
ss(VNP
p1454
VVPinf|<PONCT-PP>
p1455
tp1456
(dp1457
VVPinf|<NP-PONCT>
p1458
F0.42857142857142855
ss(VVINF
p1459
VVPinf
p1460
tp1461
(dp1462
VVN
p1463
F0.00022187708009762592
ss(VPONCT
p1464
VNP|<ADV-PONCT>
p1465
tp1466
(dp1467
VNP|<PONCT-ADV>
p1468
F0.30434782608695654
ss(VAdP
p1469
VSENT|<PONCT-NP>
p1470
tp1471
(dp1472
VSENT
p1473
F0.0016135538523598225
ss(VADV
p1474
VSENT|<PONCT-PP>
p1475
tp1476
(dp1477
VSENT|<ADV-PONCT>
p1478
F0.14285714285714285
sVSENT
p1479
F0.005647438483259379
ss(VNC
p1480
VNP|<NC-Srel>
p1481
tp1482
(dp1483
VNP|<NC-NC>
p1484
F0.004975124378109453
ss(VVPinf
p1485
VSrel|<PONCT-COORD>
p1486
tp1487
(dp1488
VSrel|<VPinf-PONCT>
p1489
F1.0
ss(VAP
p1490
VCOORD|<ADV-Ssub>
p1491
tp1492
(dp1493
VCOORD|<AP-ADV>
p1494
F1.0
ss(VSint
p1495
VNP|<PONCT-PP>
p1496
tp1497
(dp1498
VNP|<Sint-PONCT>
p1499
F0.1111111111111111
ss(g64
VNP|<NP-Ssub>
p1500
tp1501
(dp1502
g157
F0.5
ss(VPP
p1503
VSsub|<NP-COORD>
p1504
tp1505
(dp1506
VSsub|<PP-NP>
p1507
F0.14285714285714285
ss(VPP
p1508
VNP|<PONCT-PONCT>
p1509
tp1510
(dp1511
VNP|<PP-PONCT>
p1512
F0.00749063670411985
ss(VPP
p1513
VSENT|<VN-AP>
p1514
tp1515
(dp1516
VSENT|<PP-VN>
p1517
F0.2
ss(VPP
p1518
VVPpart
p1519
tp1520
(dp1521
VNP|<PP-VPpart>
p1522
F0.9230769230769231
ss(VCOORD
p1523
VVPpart|<PONCT-Srel>
p1524
tp1525
(dp1526
g1110
F0.5
ss(VVN
p1527
VSrel|<NP-PONCT>
p1528
tp1529
(dp1530
g1013
F0.03787878787878788
ss(VAP
p1531
VSENT|<VPinf-PONCT>
p1532
tp1533
(dp1534
VSENT|<AP-VPinf>
p1535
F1.0
ss(VPP
p1536
VSENT|<AP-PONCT>
p1537
tp1538
(dp1539
VSENT|<PP-AP>
p1540
F1.0
ss(VVN
p1541
g1489
tp1542
(dp1543
VSrel|<VN-VPinf>
p1544
F0.05555555555555555
ss(VSsub
p1545
VSENT|<PONCT-VPinf>
p1546
tp1547
(dp1548
VSENT|<Ssub-PONCT>
p1549
F0.009389671361502348
ss(VADV
p1550
VAdP|<ADV-ADV>
p1551
tp1552
(dp1553
VAdP
p1554
F0.01904761904761905
ss(VAP
p1555
VSint|<PP-PONCT>
p1556
tp1557
(dp1558
VSint|<AP-PP>
p1559
F0.25
ss(VSsub
p1560
VCOORD
p1561
tp1562
(dp1563
VSENT|<Ssub-COORD>
p1564
F0.42857142857142855
sVSrel|<Ssub-COORD>
p1565
F1.0
sg870
F1.0
ss(VNP
p1566
VSENT|<PONCT-VPpart>
p1567
tp1568
(dp1569
VSENT|<NP-PONCT>
p1570
F0.013729977116704805
ss(VET
p1571
VNP|<PONCT-NC>
p1572
tp1573
(dp1574
VNP|<ET-PONCT>
p1575
F0.3333333333333333
ss(VPP
p1576
VAP|<PONCT-COORD>
p1577
tp1578
(dp1579
VAP|<PP-PONCT>
p1580
F0.125
ss(VVPpart
p1581
VSENT|<PONCT-Sint>
p1582
tp1583
(dp1584
VSENT|<VPpart-PONCT>
p1585
F0.045454545454545456
sVSENT
p1586
F0.0004033884630899556
ss(VPP
p1587
VNP|<COORD-PP>
p1588
tp1589
(dp1590
VNP|<PP-COORD>
p1591
F0.020618556701030927
ss(VNP
p1592
VSrel|<VN-PP>
p1593
tp1594
(dp1595
VSrel|<NP-VN>
p1596
F0.3269230769230769
sVSrel
p1597
F0.2129032258064516
ss(VPP
p1598
VSsub|<AdP-PP>
p1599
tp1600
(dp1601
VSsub|<PP-AdP>
p1602
F0.5
ss(VVPP
p1603
VVPpart|<COORD-PP>
p1604
tp1605
(dp1606
VVPpart
p1607
F0.002173913043478261
ss(VVPpart
p1608
VSrel|<PONCT-AP>
p1609
tp1610
(dp1611
VSrel|<VPpart-PONCT>
p1612
F0.3333333333333333
ss(VVN
p1613
VSint|<ADV-AP>
p1614
tp1615
(dp1616
VSint
p1617
F0.0036363636363636364
sVSint|<VN-ADV>
p1618
F0.17647058823529413
ss(VCS
p1619
VPP
p1620
tp1621
(dp1622
VSsub
p1623
F0.01903114186851211
ss(VCOORD
p1624
VSrel
p1625
tp1626
(dp1627
VNP|<COORD-Srel>
p1628
F1.0
ss(VNC
p1629
VNP|<PP-Srel>
p1630
tp1631
(dp1632
VNP|<NC-PP>
p1633
F0.01416171767930562
sVNP
p1634
F0.00042005040604872583
ss(VVN
p1635
VPP
p1636
tp1637
(dp1638
VVPinf|<VN-PP>
p1639
F0.5855855855855856
sVSint|<VN-PP>
p1640
F0.5714285714285714
sVSENT|<VN-PP>
p1641
F0.002717391304347826
sg1593
F0.7086614173228346
sVSint
p1642
F0.025454545454545455
sVSsub|<VN-PP>
p1643
F0.6893203883495146
sVVPpart
p1644
F0.06847826086956521
sVVPpart|<VN-PP>
p1645
F1.0
sVCOORD|<VN-PP>
p1646
F0.8333333333333334
sVVPinf
p1647
F0.08723021582733813
sVSENT
p1648
F0.0004033884630899556
ss(VNC
p1649
VNP|<ADV-VPinf>
p1650
tp1651
(dp1652
VNP|<NC-ADV>
p1653
F0.045454545454545456
sVNP
p1654
F7.000840100812098e-05
ss(VVN
p1655
VSENT|<PP-Ssub>
p1656
tp1657
(dp1658
VSENT
p1659
F0.0012101653892698668
sVSENT|<VN-PP>
p1660
F0.02717391304347826
ss(VADV
p1661
g958
tp1662
(dp1663
VCOORD|<ADV-PONCT>
p1664
F0.25
ss(VVN
p1665
VSsub|<AP-PONCT>
p1666
tp1667
(dp1668
VSsub|<VN-AP>
p1669
F0.046511627906976744
ss(VSrel
p1670
VNP|<PONCT-Srel>
p1671
tp1672
(dp1673
g1285
F0.17647058823529413
ss(VAP
p1674
VNP|<PONCT-PP>
p1675
tp1676
(dp1677
VNP|<AP-PONCT>
p1678
F0.10062893081761007
ss(VPONCT
p1679
VVPinf|<VN-AP>
p1680
tp1681
(dp1682
VVPinf|<PONCT-VN>
p1683
F0.2857142857142857
ss(VCC
p1684
VCOORD|<VN-Ssub>
p1685
tp1686
(dp1687
VCOORD
p1688
F0.00439146800501882
ss(VNC
p1689
VNP|<VPpart-PP>
p1690
tp1691
(dp1692
VNP
p1693
F0.00021002520302436292
sVNP|<NC-VPpart>
p1694
F0.061488673139158574
ss(VCC
p1695
VDET
p1696
tp1697
(dp1698
VCOORD
p1699
F0.00439146800501882
ss(VPP
p1700
VNP|<AP-NP>
p1701
tp1702
(dp1703
VNP|<PP-AP>
p1704
F0.01639344262295082
ss(VPONCT
p1705
VPP|<AP-PONCT>
p1706
tp1707
(dp1708
VPP|<PONCT-AP>
p1709
F1.0
ss(VNP
p1710
VSrel|<VN-AdP>
p1711
tp1712
(dp1713
VSrel
p1714
F0.002150537634408602
ss(VADJ
p1715
VNP|<PONCT-NC>
p1716
tp1717
(dp1718
VNP|<ADJ-PONCT>
p1719
F0.42857142857142855
sVNP
p1720
F7.000840100812098e-05
ss(VPP
p1721
VVPpart|<PONCT-PP>
p1722
tp1723
(dp1724
VVPpart|<PP-PONCT>
p1725
F0.4090909090909091
ss(VVN
p1726
VSENT|<PONCT-COORD>
p1727
tp1728
(dp1729
VSENT|<VN-PONCT>
p1730
F0.0375
ss(VCC
p1731
VCOORD|<PP-PONCT>
p1732
tp1733
(dp1734
VCOORD
p1735
F0.002509410288582183
ss(VADV
p1736
VNP|<P-DET>
p1737
tp1738
(dp1739
VNP
p1740
F0.0019602352282273874
ss(VNPP
p1741
g849
tp1742
(dp1743
VNP
p1744
F7.000840100812098e-05
sVNP|<NPP-PONCT>
p1745
F0.01775147928994083
ss(VVINF
p1746
VVN|<ADV-VPP>
p1747
tp1748
(dp1749
VVN|<VINF-ADV>
p1750
F0.3333333333333333
sVVN
p1751
F0.002218770800976259
ss(VADV
p1752
VSrel|<NP-PP>
p1753
tp1754
(dp1755
VSrel|<ADV-NP>
p1756
F0.14285714285714285
ss(VPP
p1757
VAP|<PONCT-NP>
p1758
tp1759
(dp1760
VAP|<PP-PONCT>
p1761
F0.125
ss(VNP
p1762
VVPinf|<VPinf-COORD>
p1763
tp1764
(dp1765
VVPinf|<NP-VPinf>
p1766
F0.07142857142857142
ss(VADV
p1767
VSint|<AP-COORD>
p1768
tp1769
(dp1770
VSint|<ADV-AP>
p1771
F0.25
ss(VCLR
p1772
VVN|<VINF-ADV>
p1773
tp1774
(dp1775
VVN
p1776
F0.00022187708009762592
ss(VADV
p1777
g232
tp1778
(dp1779
VVN
p1780
F0.02440647881073885
sg1436
F0.8717948717948718
ss(VADV
p1781
VSENT|<COORD-PONCT>
p1782
tp1783
(dp1784
g2
F1.0
ss(VVN
p1785
VVPpart|<NP-NP>
p1786
tp1787
(dp1788
VVPpart
p1789
F0.0010869565217391304
ss(VCS
p1790
VVPinf
p1791
tp1792
(dp1793
VSsub
p1794
F0.0034602076124567475
ss(VCS
p1795
VSsub|<VN-AdP>
p1796
tp1797
(dp1798
VSsub
p1799
F0.0017301038062283738
ss(VPONCT
p1800
VVPpart|<ADV-PONCT>
p1801
tp1802
(dp1803
g1050
F1.0
ss(VAP
p1804
VSENT|<PONCT-VPinf>
p1805
tp1806
(dp1807
VSENT|<AP-PONCT>
p1808
F0.015384615384615385
ss(VSsub
p1809
VVPinf|<PONCT-Ssub>
p1810
tp1811
(dp1812
VVPinf|<Ssub-PONCT>
p1813
F0.25
ss(VVPinf
p1814
VCOORD|<PONCT-NP>
p1815
tp1816
(dp1817
g1431
F0.5
ss(VSint
p1818
VSENT|<PONCT-PP>
p1819
tp1820
(dp1821
VSENT|<Sint-PONCT>
p1822
F0.012048192771084338
ss(VVN
p1823
VVPinf|<Sint-PP>
p1824
tp1825
(dp1826
VVPinf
p1827
F0.0008992805755395684
ss(VNP
p1828
VSrel|<PONCT-PP>
p1829
tp1830
(dp1831
g1528
F0.3125
sVSrel
p1832
F0.008602150537634409
ss(VCOORD
p1833
VSrel|<PP-PP>
p1834
tp1835
(dp1836
VSrel|<COORD-PP>
p1837
F1.0
ss(VNC
p1838
g858
tp1839
(dp1840
VNP
p1841
F7.000840100812098e-05
sVNP|<NC-VPpart>
p1842
F0.009708737864077669
ss(VNP
p1843
g1234
tp1844
(dp1845
VSENT|<NP-PONCT>
p1846
F0.002288329519450801
ss(VDET
p1847
VNP|<NC-DET>
p1848
tp1849
(dp1850
VNP
p1851
F0.00014001680201624196
ss(VADV
p1852
VSsub|<PONCT-VPinf>
p1853
tp1854
(dp1855
VSsub|<ADV-PONCT>
p1856
F0.08333333333333333
ss(VNP
p1857
VSint|<VN-AP>
p1858
tp1859
(dp1860
VSint|<NP-VN>
p1861
F0.041666666666666664
sVSint
p1862
F0.03272727272727273
ss(VNPP
p1863
VNP|<ET-NPP>
p1864
tp1865
(dp1866
VNP
p1867
F0.00042005040604872583
sVNP|<NPP-ET>
p1868
F0.5
ss(VCS
p1869
VSsub|<AP-ADV>
p1870
tp1871
(dp1872
VSsub
p1873
F0.0017301038062283738
ss(VPP
p1874
VSENT|<PONCT-AP>
p1875
tp1876
(dp1877
VSENT|<PP-PONCT>
p1878
F0.0015015015015015015
ss(VCOORD
p1879
VNPP
p1880
tp1881
(dp1882
VNP|<COORD-NPP>
p1883
F1.0
ss(VNC
p1884
g284
tp1885
(dp1886
VNP
p1887
F0.0002800336040324839
sVNP|<NC-NC>
p1888
F0.03482587064676617
ss(VPP
p1889
VSENT|<VN-NP>
p1890
tp1891
(dp1892
VSENT|<PP-VN>
p1893
F0.4
sVSENT
p1894
F0.0012101653892698668
ss(VNP
p1895
VSsub|<VN-AP>
p1896
tp1897
(dp1898
VSsub|<NP-VN>
p1899
F0.08727272727272728
ss(VPP
p1900
VSENT|<PONCT-COORD>
p1901
tp1902
(dp1903
VSENT|<PP-PONCT>
p1904
F0.036036036036036036
ss(g1780
VSENT|<ADV-PP>
p1905
tp1906
(dp1907
VSENT|<VN-ADV>
p1908
F0.18316831683168316
sVSENT
p1909
F0.004033884630899556
ss(VNP
p1910
VSsub|<NP-PP>
p1911
tp1912
(dp1913
g732
F0.3333333333333333
ss(VVPP
p1914
g819
tp1915
(dp1916
VVPpart|<VPP-AP>
p1917
F1.0
ss(VPP
p1918
VVPinf|<PONCT-Ssub>
p1919
tp1920
(dp1921
VVPinf|<PP-PONCT>
p1922
F0.1
ss(VADJ
p1923
VNP|<DET-NC>
p1924
tp1925
(dp1926
VNP
p1927
F0.004200504060487258
ss(VET
p1928
g1305
tp1929
(dp1930
VNP|<ET-NPP>
p1931
F0.05555555555555555
ss(VNC
p1932
VNP|<Srel-VPpart>
p1933
tp1934
(dp1935
VNP
p1936
F7.000840100812098e-05
sVNP|<NC-Srel>
p1937
F0.006711409395973154
ss(VVN
p1938
VSsub|<AdP-NP>
p1939
tp1940
(dp1941
VSsub|<VN-AdP>
p1942
F0.4
ss(VADV
p1943
VSENT|<VPinf-Sint>
p1944
tp1945
(dp1946
VSENT|<ADV-VPinf>
p1947
F0.0136986301369863
ss(g64
VSint
p1948
tp1949
(dp1950
VPP
p1951
F0.0002550369803621525
ss(VAP
p1952
VSENT|<PONCT-NP>
p1953
tp1954
(dp1955
VSENT|<AP-PONCT>
p1956
F0.015384615384615385
sVSENT
p1957
F0.002016942315449778
ss(VPP
p1958
VSsub|<PONCT-ADV>
p1959
tp1960
(dp1961
VSsub|<PP-PONCT>
p1962
F0.023255813953488372
ss(VPONCT
p1963
VSsub|<PP-PP>
p1964
tp1965
(dp1966
VSsub|<PONCT-PP>
p1967
F0.03125
ss(VCC
p1968
VNP
p1969
tp1970
(dp1971
VCOORD
p1972
F0.31555834378920955
ss(VNP
p1973
VAdP
p1974
tp1975
(dp1976
VVPinf|<NP-AdP>
p1977
F0.5
ss(VI
p1978
VADV
p1979
tp1980
(dp1981
VAdP
p1982
F0.009523809523809525
ss(VET
p1983
VNP|<NP-PONCT>
p1984
tp1985
(dp1986
VNP|<ET-NP>
p1987
F0.5
ss(VNC
p1988
VNP|<ADJ-PONCT>
p1989
tp1990
(dp1991
VNP
p1992
F7.000840100812098e-05
sVNP|<NC-ADJ>
p1993
F0.14285714285714285
ss(VNP
p1994
g1645
tp1995
(dp1996
VVPpart
p1997
F0.004347826086956522
ss(VPONCT
p1998
VSsub|<ADV-Ssub>
p1999
tp2000
(dp2001
g1959
F0.25
ss(VADV
p2002
VVN|<V-VPP>
p2003
tp2004
(dp2005
VVN
p2006
F0.0039937874417572666
ss(VVN
p2007
VSENT|<PONCT-VPpart>
p2008
tp2009
(dp2010
VSENT|<VN-PONCT>
p2011
F0.025
ss(VNC
p2012
VNP|<AP-NPP>
p2013
tp2014
(dp2015
VNP
p2016
F7.000840100812098e-05
sVNP|<NC-AP>
p2017
F0.008278145695364239
ss(VADV
p2018
VSENT|<PONCT-ADV>
p2019
tp2020
(dp2021
VSENT
p2022
F0.0008067769261799112
ss(VPP
p2023
g391
tp2024
(dp2025
VSint|<PP-PONCT>
p2026
F0.038461538461538464
ss(VNP
p2027
VVPpart|<PP-PONCT>
p2028
tp2029
(dp2030
VVPpart|<NP-PP>
p2031
F0.0625
ss(VVN
p2032
VVPinf|<AP-PP>
p2033
tp2034
(dp2035
VVPinf
p2036
F0.0008992805755395684
sVVPinf|<VN-AP>
p2037
F0.16666666666666666
ss(VPONCT
p2038
VVPinf|<VPpart-PONCT>
p2039
tp2040
(dp2041
VVPinf|<PONCT-VPpart>
p2042
F0.5
ss(VCOORD
p2043
VNP|<COORD-COORD>
p2044
tp2045
(dp2046
VNP|<COORD-COORD>
p2047
F0.4797687861271676
ss(VNC
p2048
VNP|<NP-PP>
p2049
tp2050
(dp2051
VNP
p2052
F7.000840100812098e-05
sVNP|<NC-NP>
p2053
F0.13333333333333333
ss(VVN
p2054
VSrel|<PP-PP>
p2055
tp2056
(dp2057
VSrel|<VN-PP>
p2058
F0.14173228346456693
ss(VVN
p2059
VSsub|<PP-PONCT>
p2060
tp2061
(dp2062
VSsub|<VN-PP>
p2063
F0.07766990291262135
ss(VAP
p2064
VVPinf|<NP-PONCT>
p2065
tp2066
(dp2067
VVPinf|<AP-NP>
p2068
F1.0
ss(VPONCT
p2069
VSENT|<Ssub-PONCT>
p2070
tp2071
(dp2072
VSENT|<PONCT-Ssub>
p2073
F0.9583333333333334
sVSENT
p2074
F0.0060508269463493344
ss(VVPinf
p2075
VPONCT
p2076
tp2077
(dp2078
VSint|<VPinf-PONCT>
p2079
F0.6666666666666666
sVNP|<VPinf-PONCT>
p2080
F0.42857142857142855
sVSENT|<VPinf-PONCT>
p2081
F0.8275862068965517
sVSsub|<VPinf-PONCT>
p2082
F0.13333333333333333
sVSENT
p2083
F0.004840661557079467
ss(VADV
p2084
VSsub|<PP-VPinf>
p2085
tp2086
(dp2087
VSsub|<ADV-PP>
p2088
F0.13333333333333333
ss(VPONCT
p2089
g232
tp2090
(dp2091
VVN|<PONCT-V>
p2092
F1.0
ss(VPP
p2093
VSrel|<NP-PONCT>
p2094
tp2095
(dp2096
VSrel|<PP-NP>
p2097
F0.125
ss(VAP
p2098
VNP|<PP-NPP>
p2099
tp2100
(dp2101
VNP|<AP-PP>
p2102
F0.004246284501061571
ss(VVN
p2103
VSint
p2104
tp2105
(dp2106
VVPinf
p2107
F0.0008992805755395684
ss(VADVWH
p2108
VSENT|<VN-ADV>
p2109
tp2110
(dp2111
VSENT
p2112
F0.0008067769261799112
ss(VAdP
p2113
VADJ
p2114
tp2115
(dp2116
VAP
p2117
F0.004344677769732078
ss(VDET
p2118
VNP|<NC-NP>
p2119
tp2120
(dp2121
VNP
p2122
F0.0018202184262111453
ss(VNP
p2123
VSENT|<VN-PONCT>
p2124
tp2125
(dp2126
VSENT|<NP-VN>
p2127
F0.0731070496083551
sVSENT
p2128
F0.014521984671238403
ss(VNP
p2129
VNP|<PONCT-Srel>
p2130
tp2131
(dp2132
VNP|<NP-PONCT>
p2133
F0.028070175438596492
ss(VVN
p2134
VCOORD|<ADV-PP>
p2135
tp2136
(dp2137
VCOORD|<VN-ADV>
p2138
F0.11764705882352941
ss(VPP
p2139
VSint|<PONCT-Ssub>
p2140
tp2141
(dp2142
VSint|<PP-PONCT>
p2143
F0.07692307692307693
ss(VNP
p2144
g207
tp2145
(dp2146
VVPpart|<NP-PP>
p2147
F0.03125
ss(VADV
p2148
VSsub|<NP-ADV>
p2149
tp2150
(dp2151
VSsub|<ADV-NP>
p2152
F0.029411764705882353
ss(VVN
p2153
VAP
p2154
tp2155
(dp2156
g1896
F0.5348837209302325
sVVPinf|<VN-AP>
p2157
F0.5
sVCOORD|<VN-AP>
p2158
F0.42857142857142855
sVSrel|<VN-AP>
p2159
F0.7333333333333333
sg1858
F0.6363636363636364
sVVPpart
p2160
F0.0010869565217391304
sVSENT|<VN-AP>
p2161
F0.013333333333333334
sVVPinf
p2162
F0.0044964028776978415
sVSint
p2163
F0.0036363636363636364
ss(VPONCT
p2164
VSsub|<VPinf-PONCT>
p2165
tp2166
(dp2167
VSsub|<PONCT-VPinf>
p2168
F0.5714285714285714
ss(VCC
p2169
VCOORD|<VN-NP>
p2170
tp2171
(dp2172
VCOORD
p2173
F0.010037641154328732
ss(VNPP
p2174
VADJ
p2175
tp2176
(dp2177
VNP
p2178
F7.000840100812098e-05
ss(VNP
p2179
VVPinf|<ADV-VPinf>
p2180
tp2181
(dp2182
VVPinf|<NP-ADV>
p2183
F0.25
ss(VADV
p2184
VNP|<NP-PONCT>
p2185
tp2186
(dp2187
VNP|<ADV-NP>
p2188
F0.625
ss(VPP
p2189
VVPinf|<PONCT-ADV>
p2190
tp2191
(dp2192
VVPinf|<PP-PONCT>
p2193
F0.05
ss(VPONCT
p2194
VSENT|<Sint-PONCT>
p2195
tp2196
(dp2197
VSENT|<PONCT-Sint>
p2198
F0.9634146341463414
ss(VNP
p2199
VSENT|<Ssub-PONCT>
p2200
tp2201
(dp2202
VSENT|<NP-Ssub>
p2203
F1.0
ss(VPONCT
p2204
VNP
p2205
tp2206
(dp2207
VSENT|<PONCT-NP>
p2208
F0.06561679790026247
sVNP|<PONCT-NP>
p2209
F0.3900862068965517
sVSsub|<PONCT-NP>
p2210
F0.13513513513513514
sVCOORD
p2211
F0.10727728983688833
sVVPinf|<PONCT-NP>
p2212
F0.35714285714285715
sg1307
F0.375
sVSrel|<PONCT-NP>
p2213
F0.1111111111111111
sVVPpart|<PONCT-NP>
p2214
F0.6
sVSint|<PONCT-NP>
p2215
F0.22727272727272727
sVAP|<PONCT-NP>
p2216
F0.058823529411764705
sVCOORD|<PONCT-NP>
p2217
F0.6153846153846154
sVSENT
p2218
F0.01653892698668818
ss(VVN
p2219
VVPpart|<PP-NP>
p2220
tp2221
(dp2222
VVPpart
p2223
F0.005434782608695652
ss(VNP
p2224
VVPinf|<NP-PP>
p2225
tp2226
(dp2227
VVPinf|<NP-NP>
p2228
F0.1
ss(VVN
p2229
VCOORD|<ADV-Ssub>
p2230
tp2231
(dp2232
VCOORD|<VN-ADV>
p2233
F0.058823529411764705
ss(VADVWH
p2234
VSENT|<VN-PP>
p2235
tp2236
(dp2237
VSENT
p2238
F0.0008067769261799112
ss(VNP
p2239
VSint|<PP-COORD>
p2240
tp2241
(dp2242
VSint|<NP-PP>
p2243
F0.07142857142857142
ss(VPP
p2244
VVPpart|<PONCT-VPP>
p2245
tp2246
(dp2247
VVPpart
p2248
F0.0010869565217391304
ss(VNP
p2249
VSrel|<NP-PONCT>
p2250
tp2251
(dp2252
VSrel
p2253
F0.0064516129032258064
ss(VCLS
p2254
VVN|<VPP-VPP>
p2255
tp2256
(dp2257
VVN|<CLS-VPP>
p2258
F0.09090909090909091
ss(VPONCT
p2259
VSENT|<VPinf-Ssub>
p2260
tp2261
(dp2262
VSENT|<PONCT-VPinf>
p2263
F0.018867924528301886
ss(VNC
p2264
VVPpart
p2265
tp2266
(dp2267
VNP
p2268
F0.00644077289274713
sVNP|<NC-VPpart>
p2269
F0.8317152103559871
ss(VPONCT
p2270
VNP|<DET-ADJ>
p2271
tp2272
(dp2273
VNP
p2274
F0.00014001680201624196
ss(VVN
p2275
VVPinf|<NP-Ssub>
p2276
tp2277
(dp2278
VVPinf
p2279
F0.0008992805755395684
sVVPinf|<VN-NP>
p2280
F0.005934718100890208
ss(VET
p2281
VNP|<ET-NPP>
p2282
tp2283
(dp2284
VNP|<ET-ET>
p2285
F0.10606060606060606
ss(VADV
p2286
VNP|<PP-PP>
p2287
tp2288
(dp2289
VNP|<ADV-PP>
p2290
F0.07692307692307693
ss(VVN
p2291
VSENT|<VPinf-ADV>
p2292
tp2293
(dp2294
VSENT|<VN-VPinf>
p2295
F0.004629629629629629
ss(VPONCT
p2296
VSENT|<AdP-PP>
p2297
tp2298
(dp2299
VSENT|<PONCT-AdP>
p2300
F0.5
ss(VADV
p2301
VAP|<ADJ-COORD>
p2302
tp2303
(dp2304
VAP
p2305
F0.0018102824040550326
ss(VPONCT
p2306
VCOORD|<VN-VPinf>
p2307
tp2308
(dp2309
VCOORD
p2310
F0.0006273525721455458
ss(VNP
p2311
VSENT|<VN-Ssub>
p2312
tp2313
(dp2314
VSENT|<NP-VN>
p2315
F0.02349869451697128
sVSENT
p2316
F0.011294876966518758
ss(VNP
p2317
VVPpart|<COORD-COORD>
p2318
tp2319
(dp2320
VVPpart|<NP-COORD>
p2321
F0.3333333333333333
ss(VADJ
p2322
VAP|<PONCT-PP>
p2323
tp2324
(dp2325
VAP
p2326
F0.000724112961622013
ss(VVN
p2327
VSint|<NP-COORD>
p2328
tp2329
(dp2330
VSint
p2331
F0.007272727272727273
sVSint|<VN-NP>
p2332
F0.021739130434782608
ss(VPONCT
p2333
VAP|<ADV-PONCT>
p2334
tp2335
(dp2336
VAP|<PONCT-ADV>
p2337
F1.0
ss(VPP
p2338
VSENT|<NP-VN>
p2339
tp2340
(dp2341
VSENT
p2342
F0.002016942315449778
ss(VNC
p2343
VNP|<VPpart-AP>
p2344
tp2345
(dp2346
VNP
p2347
F7.000840100812098e-05
sVNP|<NC-VPpart>
p2348
F0.003236245954692557
ss(VVPinf
p2349
VSENT|<COORD-COORD>
p2350
tp2351
(dp2352
VSENT|<VPinf-COORD>
p2353
F0.05263157894736842
ss(VPP
p2354
VVPinf|<PONCT-COORD>
p2355
tp2356
(dp2357
VVPinf|<PP-PONCT>
p2358
F0.05
ss(VADV
p2359
VVPpart|<PONCT-VPP>
p2360
tp2361
(dp2362
VVPpart|<ADV-PONCT>
p2363
F0.2
ss(VCS
p2364
VSsub|<ADV-ADV>
p2365
tp2366
(dp2367
VSsub
p2368
F0.0017301038062283738
ss(VAP
p2369
VNP|<Srel-PONCT>
p2370
tp2371
(dp2372
VNP|<AP-Srel>
p2373
F0.07407407407407407
ss(VPONCT
p2374
VCOORD
p2375
tp2376
(dp2377
VCOORD|<PONCT-COORD>
p2378
F1.0
sVVPpart|<PONCT-COORD>
p2379
F0.8333333333333334
sg2355
F1.0
sg1486
F1.0
sVAP|<PONCT-COORD>
p2380
F0.6
sg1217
F0.9142857142857143
sVNP|<PONCT-COORD>
p2381
F0.7536231884057971
sVSint|<PONCT-COORD>
p2382
F0.3333333333333333
sVSsub|<PONCT-COORD>
p2383
F0.75
ss(VDET
p2384
VNP|<PRO-PP>
p2385
tp2386
(dp2387
VNP
p2388
F0.0013301596191542986
ss(VNP
p2389
g1341
tp2390
(dp2391
VVPinf|<NP-ADV>
p2392
F0.25
ss(VDET
p2393
VNP|<AdP-VPpart>
p2394
tp2395
(dp2396
VNP
p2397
F7.000840100812098e-05
ss(VCOORD
p2398
VSENT|<PONCT-VN>
p2399
tp2400
(dp2401
VSENT
p2402
F0.0004033884630899556
ss(VNC
p2403
VSENT|<PONCT-NP>
p2404
tp2405
(dp2406
VSENT|<NC-PONCT>
p2407
F1.0
ss(VADV
p2408
VSsub|<NP-COORD>
p2409
tp2410
(dp2411
VSsub|<ADV-NP>
p2412
F0.029411764705882353
ss(VADJ
p2413
VNP|<DET-ADJ>
p2414
tp2415
(dp2416
VNP
p2417
F0.0003500420050406049
ss(VVN
p2418
VSENT|<NP-COORD>
p2419
tp2420
(dp2421
VSENT|<VN-NP>
p2422
F0.060526315789473685
sVSENT
p2423
F0.003227107704719645
ss(VPONCT
p2424
VVPinf|<Sint-PONCT>
p2425
tp2426
(dp2427
VVPinf|<PONCT-Sint>
p2428
F0.3333333333333333
ss(VPONCT
p2429
VSsub|<VPpart-PONCT>
p2430
tp2431
(dp2432
VSsub|<PONCT-VPpart>
p2433
F0.3333333333333333
ss(VNPP
p2434
VNP|<NPP-Srel>
p2435
tp2436
(dp2437
VNP
p2438
F0.00021002520302436292
sVNP|<NPP-NPP>
p2439
F0.009433962264150943
ss(VPONCT
p2440
VSrel|<ADV-PONCT>
p2441
tp2442
(dp2443
VSrel|<PONCT-ADV>
p2444
F0.6666666666666666
ss(VPONCT
p2445
g1612
tp2446
(dp2447
g1126
F1.0
ss(VPP
p2448
VNP|<PONCT-ADV>
p2449
tp2450
(dp2451
VNP|<PP-PONCT>
p2452
F0.0149812734082397
ss(VADV
p2453
VCOORD
p2454
tp2455
(dp2456
VSint|<ADV-COORD>
p2457
F1.0
sVAdP
p2458
F0.02857142857142857
sVVPinf|<ADV-COORD>
p2459
F1.0
ss(VPP
p2460
VSENT|<NP-VPinf>
p2461
tp2462
(dp2463
VSENT|<PP-NP>
p2464
F0.03225806451612903
ss(VPONCT
p2465
VSsub|<COORD-PONCT>
p2466
tp2467
(dp2468
VSsub|<PONCT-COORD>
p2469
F0.16666666666666666
ss(VSrel
p2470
VNP|<COORD-COORD>
p2471
tp2472
(dp2473
VNP|<Srel-COORD>
p2474
F0.5
ss(VVPpart
p2475
VSint|<PONCT-VN>
p2476
tp2477
(dp2478
VSint
p2479
F0.0036363636363636364
ss(VADV
p2480
VNP|<DET-P>
p2481
tp2482
(dp2483
VNP
p2484
F0.00014001680201624196
ss(VNC
p2485
VNP|<NPP-NPP>
p2486
tp2487
(dp2488
VNP
p2489
F0.0016101932231867824
sVNP|<NC-NPP>
p2490
F0.25
ss(VPONCT
p2491
g1085
tp2492
(dp2493
VVPinf|<PONCT-PP>
p2494
F0.35714285714285715
ss(VVPP
p2495
VVN|<NP-VPP>
p2496
tp2497
(dp2498
VVN|<VPP-NP>
p2499
F1.0
ss(VNP
p2500
VSint|<PONCT-VPinf>
p2501
tp2502
(dp2503
VSint|<NP-PONCT>
p2504
F0.07692307692307693
ss(VPONCT
p2505
VSsub|<VN-NP>
p2506
tp2507
(dp2508
VSsub|<PONCT-VN>
p2509
F0.25806451612903225
ss(VNP
p2510
VSsub|<PP-PONCT>
p2511
tp2512
(dp2513
VSsub|<NP-PP>
p2514
F0.05714285714285714
ss(VET
p2515
VNP|<ET-Srel>
p2516
tp2517
(dp2518
VNP|<ET-ET>
p2519
F0.015151515151515152
ss(VADV
p2520
VCOORD|<NP-PONCT>
p2521
tp2522
(dp2523
VCOORD|<ADV-NP>
p2524
F0.09090909090909091
ss(VNP
p2525
VSrel|<AdP-PONCT>
p2526
tp2527
(dp2528
VSrel
p2529
F0.002150537634408602
ss(VVN
p2530
g783
tp2531
(dp2532
VVPinf
p2533
F0.006294964028776978
sVVPinf|<VN-PP>
p2534
F0.02702702702702703
ss(VVN
p2535
g133
tp2536
(dp2537
VSENT|<VN-NP>
p2538
F0.005263157894736842
sVSENT
p2539
F0.0004033884630899556
ss(VVN
p2540
VSint|<ADV-VPinf>
p2541
tp2542
(dp2543
VSint
p2544
F0.007272727272727273
sVSint|<VN-ADV>
p2545
F0.11764705882352941
ss(VAP
p2546
VPP
p2547
tp2548
(dp2549
VSsub|<AP-PP>
p2550
F0.6666666666666666
sVSrel|<AP-PP>
p2551
F1.0
sVSint|<AP-PP>
p2552
F0.75
sVVPpart|<AP-PP>
p2553
F1.0
sVNP|<AP-PP>
p2554
F0.7919320594479831
sg1426
F1.0
sg2033
F1.0
ss(g232
VVN|<ADV-VPP>
p2555
tp2556
(dp2557
g499
F0.9285714285714286
sVVN
p2558
F0.011759485245174173
ss(g232
VVN|<Sint-PONCT>
p2559
tp2560
(dp2561
VVN|<V-Sint>
p2562
F1.0
ss(VNC
p2563
VNP|<PONCT-VPpart>
p2564
tp2565
(dp2566
VNP
p2567
F7.000840100812098e-05
sVNP|<NC-PONCT>
p2568
F0.10909090909090909
ss(VADV
p2569
VSENT|<PP-Ssub>
p2570
tp2571
(dp2572
VSENT|<ADV-PP>
p2573
F0.017241379310344827
ss(VPONCT
p2574
VNP|<NC-PONCT>
p2575
tp2576
(dp2577
VNP
p2578
F0.00042005040604872583
sVNP|<PONCT-NC>
p2579
F0.2978723404255319
ss(VNP
p2580
VSrel|<PP-Ssub>
p2581
tp2582
(dp2583
VSrel|<NP-PP>
p2584
F0.041666666666666664
ss(VPONCT
p2585
VCOORD|<Sint-PONCT>
p2586
tp2587
(dp2588
VCOORD|<PONCT-Sint>
p2589
F0.3333333333333333
ss(VAP
p2590
VSENT|<COORD-PONCT>
p2591
tp2592
(dp2593
VSENT|<AP-COORD>
p2594
F1.0
ss(VPP
p2595
VPP|<PONCT-PP>
p2596
tp2597
(dp2598
VPP|<PP-PONCT>
p2599
F0.25
ss(VNP
p2600
VVPpart|<VN-COORD>
p2601
tp2602
(dp2603
VVPpart
p2604
F0.0010869565217391304
ss(VNP
p2605
VPP|<ADV-PONCT>
p2606
tp2607
(dp2608
VPP|<NP-ADV>
p2609
F0.3333333333333333
ss(VVPinf
p2610
VSsub|<VPinf-COORD>
p2611
tp2612
(dp2613
VSsub|<VPinf-VPinf>
p2614
F1.0
ss(VADV
p2615
VSint|<NP-Srel>
p2616
tp2617
(dp2618
VSint|<ADV-NP>
p2619
F0.0625
ss(VAdP
p2620
VSrel|<PONCT-NP>
p2621
tp2622
(dp2623
g2526
F0.5
ss(VPP
p2624
VNP|<AP-AP>
p2625
tp2626
(dp2627
VNP|<PP-AP>
p2628
F0.06557377049180328
ss(VVPpart
p2629
VNP|<PONCT-AP>
p2630
tp2631
(dp2632
VNP|<VPpart-PONCT>
p2633
F0.0392156862745098
ss(VNP
p2634
VNP|<NP-PP>
p2635
tp2636
(dp2637
VNP|<NP-NP>
p2638
F0.16666666666666666
ss(VPONCT
p2639
VSsub|<VN-AP>
p2640
tp2641
(dp2642
g474
F0.06451612903225806
ss(VPP
p2643
VSENT|<COORD-NP>
p2644
tp2645
(dp2646
VSENT|<PP-COORD>
p2647
F0.0196078431372549
ss(VNP
p2648
VSint|<ADV-VN>
p2649
tp2650
(dp2651
VSint
p2652
F0.0036363636363636364
ss(VAP
p2653
VNP|<NC-AP>
p2654
tp2655
(dp2656
VNP|<AP-NC>
p2657
F0.045454545454545456
ss(VPONCT
p2658
VDET
p2659
tp2660
(dp2661
g850
F0.002509410288582183
ss(VNP
p2662
VSENT|<ADV-VPinf>
p2663
tp2664
(dp2665
VSENT
p2666
F0.0004033884630899556
ss(VNP
p2667
VSsub|<PONCT-NP>
p2668
tp2669
(dp2670
VSsub|<NP-PONCT>
p2671
F0.12195121951219512
ss(VPONCT
p2672
VSsub|<NP-VN>
p2673
tp2674
(dp2675
VSsub|<PONCT-NP>
p2676
F0.6486486486486487
ss(VVPinf
p2677
VSENT|<PONCT-Ssub>
p2678
tp2679
(dp2680
VSENT|<VPinf-PONCT>
p2681
F0.011494252873563218
ss(VNP
p2682
g664
tp2683
(dp2684
VSrel|<NP-VN>
p2685
F0.07692307692307693
sVSrel
p2686
F0.023655913978494623
ss(VADV
p2687
VSENT|<PP-Srel>
p2688
tp2689
(dp2690
VSENT|<ADV-PP>
p2691
F0.017241379310344827
ss(VP+D
p2692
VNP
p2693
tp2694
(dp2695
VPP
p2696
F0.17686814588115277
sVPP|<P+D-NP>
p2697
F0.6363636363636364
ss(VNPP
p2698
VNP|<NPP-NPP>
p2699
tp2700
(dp2701
VNP
p2702
F0.0005600672080649678
sVNP|<NPP-NPP>
p2703
F0.03773584905660377
ss(VNP
p2704
VSENT|<VN-PP>
p2705
tp2706
(dp2707
VSENT|<NP-VN>
p2708
F0.29765013054830286
sVSENT
p2709
F0.08108108108108109
ss(g64
VNP|<NC-Ssub>
p2710
tp2711
(dp2712
VNP|<P-NC>
p2713
F0.043478260869565216
ss(VCC
p2714
VSint|<NP-VN>
p2715
tp2716
(dp2717
VSint
p2718
F0.0036363636363636364
ss(VCC
p2719
VCOORD|<PONCT-VN>
p2720
tp2721
(dp2722
VCOORD
p2723
F0.0006273525721455458
ss(VPONCT
p2724
VNP|<NPP-NC>
p2725
tp2726
(dp2727
VNP
p2728
F7.000840100812098e-05
ss(VVN
p2729
VVPinf|<AdP-PP>
p2730
tp2731
(dp2732
VVPinf
p2733
F0.0017985611510791368
sVVPinf|<VN-AdP>
p2734
F0.2
ss(VPONCT
p2735
VSint|<COORD-COORD>
p2736
tp2737
(dp2738
VSint|<PONCT-COORD>
p2739
F0.3333333333333333
ss(VNP
p2740
VCOORD|<VN-ADV>
p2741
tp2742
(dp2743
VCOORD|<NP-VN>
p2744
F1.0
ss(VPONCT
p2745
VPONCT
p2746
tp2747
(dp2748
VSsub|<PONCT-PONCT>
p2749
F0.5
sVSENT|<PONCT-PONCT>
p2750
F0.7
ss(VCC
p2751
VCOORD|<VPpart-ADV>
p2752
tp2753
(dp2754
VCOORD
p2755
F0.0006273525721455458
ss(g64
VPP|<NP-COORD>
p2756
tp2757
(dp2758
VPP
p2759
F0.019892884468247895
sVPP|<P-NP>
p2760
F0.057971014492753624
ss(VAP
p2761
VNP|<NP-PP>
p2762
tp2763
(dp2764
VNP|<AP-NP>
p2765
F0.375
ss(VADJ
p2766
VAP|<COORD-PP>
p2767
tp2768
(dp2769
VAP
p2770
F0.0010861694424330196
ss(VVN
p2771
g755
tp2772
(dp2773
VVPinf|<VN-ADV>
p2774
F0.15789473684210525
sVVPinf
p2775
F0.002697841726618705
ss(VVN
p2776
VCOORD|<NP-PONCT>
p2777
tp2778
(dp2779
VCOORD|<VN-NP>
p2780
F0.1111111111111111
ss(VNPP
p2781
VNP|<PONCT-ADV>
p2782
tp2783
(dp2784
VNP|<NPP-PONCT>
p2785
F0.01775147928994083
ss(g1000
VSENT|<VN-NP>
p2786
tp2787
(dp2788
VSENT|<NP-VN>
p2789
F0.2558746736292428
sVSENT
p2790
F0.07866075030254134
ss(g232
VCLR
p2791
tp2792
(dp2793
VVN|<V-CLR>
p2794
F1.0
ss(VCS
p2795
VSsub|<VN-VPinf>
p2796
tp2797
(dp2798
VSsub|<CS-VN>
p2799
F0.3333333333333333
sVSsub
p2800
F0.05363321799307959
ss(VAP
p2801
g959
tp2802
(dp2803
VSsub|<AP-PONCT>
p2804
F0.5
ss(VADV
p2805
VSENT|<PP-COORD>
p2806
tp2807
(dp2808
VSENT|<ADV-PP>
p2809
F0.034482758620689655
ss(VADV
p2810
VSENT|<ADV-PP>
p2811
tp2812
(dp2813
VSENT|<ADV-ADV>
p2814
F0.21428571428571427
ss(VVN
p2815
VVPpart|<PP-VPinf>
p2816
tp2817
(dp2818
VVPpart
p2819
F0.0010869565217391304
ss(VPONCT
p2820
VAP|<NP-PONCT>
p2821
tp2822
(dp2823
VAP|<PONCT-NP>
p2824
F0.9411764705882353
ss(VPP
p2825
VVN
p2826
tp2827
(dp2828
VSsub|<PP-VN>
p2829
F0.2
sVSrel
p2830
F0.004301075268817204
sVSint
p2831
F0.01090909090909091
ss(VVN
p2832
VVPinf|<ADV-NP>
p2833
tp2834
(dp2835
VVPinf|<VN-ADV>
p2836
F0.631578947368421
sVVPinf
p2837
F0.008992805755395683
ss(VPP
p2838
VSrel|<VN-ADV>
p2839
tp2840
(dp2841
g1670
F0.012903225806451613
ss(VPRO
p2842
VVPinf
p2843
tp2844
(dp2845
VNP
p2846
F0.00014001680201624196
ss(VAP
p2847
VSsub|<PP-VPinf>
p2848
tp2849
(dp2850
VSsub|<AP-PP>
p2851
F0.3333333333333333
ss(VNC
p2852
VNP|<COORD-PP>
p2853
tp2854
(dp2855
VNP
p2856
F0.0008401008120974517
sVNP|<NC-COORD>
p2857
F0.17333333333333334
ss(VADV
p2858
VSENT|<PP-PP>
p2859
tp2860
(dp2861
VSENT|<ADV-PP>
p2862
F0.06896551724137931
ss(VAP
p2863
VNP|<AP-NPP>
p2864
tp2865
(dp2866
VNP|<AP-AP>
p2867
F0.012195121951219513
ss(VADV
p2868
VAdP|<ADV-Ssub>
p2869
tp2870
(dp2871
VAdP
p2872
F0.009523809523809525
ss(VCS
p2873
g1027
tp2874
(dp2875
VSsub
p2876
F0.02768166089965398
ss(VPONCT
p2877
VCOORD|<VN-AP>
p2878
tp2879
(dp2880
VCOORD
p2881
F0.0012547051442910915
ss(VNC
p2882
VNP|<NC-COORD>
p2883
tp2884
(dp2885
VNP
p2886
F7.000840100812098e-05
sVNP|<NC-NC>
p2887
F0.009950248756218905
ss(VCS
p2888
VNP
p2889
tp2890
(dp2891
VSsub
p2892
F0.06228373702422145
ss(VDET
p2893
VAP
p2894
tp2895
(dp2896
VNP
p2897
F0.00042005040604872583
ss(VNC
p2898
VCOORD
p2899
tp2900
(dp2901
VNP
p2902
F0.0037804536544385325
sVNP|<NC-COORD>
p2903
F0.6
ss(VAP
p2904
VNP|<PP-NP>
p2905
tp2906
(dp2907
VNP|<AP-PP>
p2908
F0.0021231422505307855
ss(VADJ
p2909
VNP|<ADJ-NC>
p2910
tp2911
(dp2912
VNP
p2913
F0.00014001680201624196
sVNP|<ADJ-ADJ>
p2914
F0.8
ss(VCLS
p2915
VVN|<ADV-CLO>
p2916
tp2917
(dp2918
VVN
p2919
F0.0039937874417572666
ss(VVN
p2920
g1157
tp2921
(dp2922
VSsub|<VN-ADV>
p2923
F0.03896103896103896
ss(g232
VVN|<VPP-VPP>
p2924
tp2925
(dp2926
VVN|<V-VPP>
p2927
F0.08260869565217391
sVVN
p2928
F0.026403372531617484
ss(VDET
p2929
g2490
tp2930
(dp2931
VNP
p2932
F0.009661159339120694
sVNP|<DET-NC>
p2933
F0.005555555555555556
ss(VVN
p2934
VVPinf|<VPinf-PONCT>
p2935
tp2936
(dp2937
VVPinf|<VN-VPinf>
p2938
F0.05555555555555555
ss(VPP
p2939
VSsub|<VN-NP>
p2940
tp2941
(dp2942
VSsub|<PP-VN>
p2943
F0.2
ss(VVN
p2944
VSENT|<PONCT-PP>
p2945
tp2946
(dp2947
VSENT|<VN-PONCT>
p2948
F0.1875
sVSENT
p2949
F0.0016135538523598225
ss(VADV
p2950
g613
tp2951
(dp2952
VSsub|<ADV-NP>
p2953
F0.11764705882352941
ss(VVS
p2954
VVN|<VPP-VPP>
p2955
tp2956
(dp2957
VVN|<VS-VPP>
p2958
F0.16666666666666666
ss(VADV
p2959
VADV
p2960
tp2961
(dp2962
VAP
p2963
F0.0003620564808110065
sg941
F1.0
sVSsub|<ADV-ADV>
p2964
F0.2
sVAdP
p2965
F0.638095238095238
ss(VPRO
p2966
VSrel
p2967
tp2968
(dp2969
VNP
p2970
F0.002730327639316718
sVNP|<PRO-Srel>
p2971
F1.0
ss(VVN
p2972
VSsub
p2973
tp2974
(dp2975
g1685
F1.0
sVSint
p2976
F0.02181818181818182
sVSint|<VN-Ssub>
p2977
F1.0
sVSrel|<VN-Ssub>
p2978
F0.8571428571428571
sVVPpart
p2979
F0.014130434782608696
sVVPinf|<VN-Ssub>
p2980
F1.0
sVVPinf
p2981
F0.023381294964028777
sVSsub|<VN-Ssub>
p2982
F0.8333333333333334
ss(VVN
p2983
VSENT|<PONCT-Sint>
p2984
tp2985
(dp2986
VSENT|<VN-PONCT>
p2987
F0.0875
sVSENT
p2988
F0.0004033884630899556
ss(VNP
p2989
VSrel|<PP-VN>
p2990
tp2991
(dp2992
VSrel
p2993
F0.002150537634408602
ss(VCOORD
p2994
VNP|<PONCT-Srel>
p2995
tp2996
(dp2997
VNP|<COORD-PONCT>
p2998
F0.1111111111111111
ss(VPONCT
p2999
VNP|<NP-PP>
p3000
tp3001
(dp3002
VNP|<PONCT-NP>
p3003
F0.004310344827586207
ss(VADV
p3004
VPP|<P-VPpart>
p3005
tp3006
(dp3007
VPP
p3008
F0.00012751849018107625
ss(VCLO
p3009
VVPinf|<VN-ADV>
p3010
tp3011
(dp3012
VVPinf
p3013
F0.0008992805755395684
ss(VADV
p3014
VVPpart|<PONCT-PP>
p3015
tp3016
(dp3017
VVPpart|<ADV-PONCT>
p3018
F0.2
ss(VNP
p3019
VSrel|<VN-Ssub>
p3020
tp3021
(dp3022
VSrel|<NP-VN>
p3023
F0.038461538461538464
sVSrel
p3024
F0.008602150537634409
ss(VAP
p3025
VSsub|<ADV-Ssub>
p3026
tp3027
(dp3028
g1870
F1.0
ss(VADV
p3029
VSENT|<PONCT-Srel>
p3030
tp3031
(dp3032
VSENT
p3033
F0.0004033884630899556
ss(VSrel
p3034
VSENT|<PONCT-PONCT>
p3035
tp3036
(dp3037
VSENT|<Srel-PONCT>
p3038
F0.07692307692307693
ss(VPP
p3039
VAdP
p3040
tp3041
(dp3042
VSsub|<PP-AdP>
p3043
F0.5
sVVPinf|<PP-AdP>
p3044
F1.0
ss(VPP
p3045
VVPpart|<NP-PP>
p3046
tp3047
(dp3048
VVPpart|<PP-NP>
p3049
F0.125
ss(VNPP
p3050
VNP|<NC-PONCT>
p3051
tp3052
(dp3053
VNP|<NPP-NC>
p3054
F0.5714285714285714
ss(VCLR
p3055
VVN|<V-AdP>
p3056
tp3057
(dp3058
VVN|<CLR-V>
p3059
F0.017241379310344827
ss(VCLR
p3060
g2562
tp3061
(dp3062
VVN
p3063
F0.00022187708009762592
ss(g64
VVPinf|<VN-COORD>
p3064
tp3065
(dp3066
VVPinf
p3067
F0.0035971223021582736
ss(VNP
p3068
VCOORD
p3069
tp3070
(dp3071
VSint|<NP-COORD>
p3072
F0.75
sg2756
F0.839622641509434
sVSrel|<NP-COORD>
p3073
F0.5
sVCOORD|<NP-COORD>
p3074
F1.0
sVVPpart|<NP-COORD>
p3075
F0.6666666666666666
sg1131
F0.9565217391304348
sVSsub|<NP-COORD>
p3076
F0.875
sVSENT|<NP-COORD>
p3077
F0.02631578947368421
sVNP|<NP-COORD>
p3078
F0.5714285714285714
ss(VCS
p3079
VVPpart
p3080
tp3081
(dp3082
VSsub
p3083
F0.006920415224913495
ss(VNP
p3084
VCOORD|<PONCT-VPpart>
p3085
tp3086
(dp3087
VCOORD|<NP-PONCT>
p3088
F0.09090909090909091
ss(VAP
p3089
VSsub|<PONCT-NP>
p3090
tp3091
(dp3092
g1666
F0.5
ss(VAP
p3093
VNP|<AP-NC>
p3094
tp3095
(dp3096
VNP|<AP-AP>
p3097
F0.006097560975609756
ss(VADV
p3098
VVN|<CLO-V>
p3099
tp3100
(dp3101
g2916
F1.0
sg1142
F0.0015531395606833815
ss(VNP
p3102
VPONCT
p3103
tp3104
(dp3105
VCOORD|<NP-PONCT>
p3106
F0.2727272727272727
sVSsub|<NP-PONCT>
p3107
F0.024390243902439025
sVNP|<NP-PONCT>
p3108
F0.5614035087719298
sVVPinf|<NP-PONCT>
p3109
F0.2
sVSENT|<NP-PONCT>
p3110
F0.4805491990846682
sg2821
F0.9375
sVSint|<NP-PONCT>
p3111
F0.3076923076923077
sVPP|<NP-PONCT>
p3112
F0.19607843137254902
sVSENT
p3113
F0.040742234772085516
sVVPpart|<NP-PONCT>
p3114
F0.5
ss(VPONCT
p3115
VNP|<NC-AP>
p3116
tp3117
(dp3118
VNP
p3119
F0.0007700924110893308
sg1716
F0.14893617021276595
ss(VNC
p3120
VAP
p3121
tp3122
(dp3123
VNP
p3124
F0.03374404928591431
sVNP|<NC-AP>
p3125
F0.5173841059602649
ss(VNP
p3126
VSsub|<VN-Ssub>
p3127
tp3128
(dp3129
VSsub|<NP-VN>
p3130
F0.014545454545454545
ss(VVN
p3131
VVPpart|<NP-PONCT>
p3132
tp3133
(dp3134
VVPpart
p3135
F0.003260869565217391
ss(VPONCT
p3136
VNP|<ADV-NP>
p3137
tp3138
(dp3139
VNP|<PONCT-ADV>
p3140
F0.34782608695652173
ss(VNP
p3141
VSint|<VN-AdP>
p3142
tp3143
(dp3144
g571
F0.08333333333333333
ss(VPONCT
p3145
VSENT|<Ssub-VN>
p3146
tp3147
(dp3148
g962
F0.020833333333333332
ss(VCS
p3149
VSsub|<VN-PONCT>
p3150
tp3151
(dp3152
VSsub
p3153
F0.0017301038062283738
ss(VVN
p3154
VVPpart|<ADV-PP>
p3155
tp3156
(dp3157
VVPpart
p3158
F0.003260869565217391
sVVPpart|<VN-ADV>
p3159
F0.75
ss(VDET
p3160
VNP|<PONCT-NC>
p3161
tp3162
(dp3163
VNP
p3164
F0.0015401848221786615
ss(VCS
p3165
g2982
tp3166
(dp3167
VSsub
p3168
F0.0034602076124567475
ss(VNPP
p3169
VNP|<PONCT-NC>
p3170
tp3171
(dp3172
VNP
p3173
F7.000840100812098e-05
sVNP|<NPP-PONCT>
p3174
F0.005917159763313609
ss(VADV
p3175
VSENT|<PP-VPinf>
p3176
tp3177
(dp3178
VSENT|<ADV-PP>
p3179
F0.06896551724137931
ss(VADV
p3180
g2203
tp3181
(dp3182
VSENT|<ADV-NP>
p3183
F0.009433962264150943
ss(VAP
p3184
VSENT|<NP-PP>
p3185
tp3186
(dp3187
VSENT|<AP-NP>
p3188
F0.5
ss(VSsub
p3189
VSENT|<PONCT-Ssub>
p3190
tp3191
(dp3192
VSENT|<Ssub-PONCT>
p3193
F0.03286384976525822
ss(VPONCT
p3194
VNP|<NP-COORD>
p3195
tp3196
(dp3197
VNP|<PONCT-NP>
p3198
F0.01293103448275862
ss(VVN
p3199
VSrel|<NP-PP>
p3200
tp3201
(dp3202
VSrel|<VN-NP>
p3203
F0.14393939393939395
ss(VAP
p3204
VNP|<NPP-PONCT>
p3205
tp3206
(dp3207
VNP|<AP-NPP>
p3208
F0.07142857142857142
ss(VNC
p3209
VNP|<PONCT-AP>
p3210
tp3211
(dp3212
VNP
p3213
F7.000840100812098e-05
sVNP|<NC-PONCT>
p3214
F0.05454545454545454
ss(VNP
p3215
VSENT|<AP-PONCT>
p3216
tp3217
(dp3218
VSENT|<NP-AP>
p3219
F1.0
ss(VADV
p3220
VNP|<NC-PONCT>
p3221
tp3222
(dp3223
VNP|<ADV-NC>
p3224
F1.0
ss(VPP
p3225
VNP
p3226
tp3227
(dp3228
g2220
F0.75
sg2905
F0.7777777777777778
sVSrel
p3229
F0.023655913978494623
sVVPinf|<PP-NP>
p3230
F0.782608695652174
sVCOORD|<PP-NP>
p3231
F1.0
sVSsub|<PP-NP>
p3232
F0.2857142857142857
sVSint|<PP-NP>
p3233
F1.0
sVSrel|<PP-NP>
p3234
F0.625
sg890
F1.0
ss(VCOORD
p3235
VNP|<NC-PP>
p3236
tp3237
(dp3238
VNP|<COORD-NC>
p3239
F0.125
ss(VSsub
p3240
VSENT|<COORD-PONCT>
p3241
tp3242
(dp3243
VSENT|<Ssub-COORD>
p3244
F0.42857142857142855
ss(VPONCT
p3245
VNP|<PONCT-NP>
p3246
tp3247
(dp3248
VNP|<PONCT-PONCT>
p3249
F0.4444444444444444
ss(VVN
p3250
VSENT|<PP-VPpart>
p3251
tp3252
(dp3253
VSENT|<VN-PP>
p3254
F0.008152173913043478
ss(VCLR
p3255
VVN|<V-CLS>
p3256
tp3257
(dp3258
VVN
p3259
F0.00022187708009762592
ss(VADV
p3260
VSENT|<NP-COORD>
p3261
tp3262
(dp3263
VSENT|<ADV-NP>
p3264
F0.02830188679245283
ss(VPP
p3265
VNP|<NPP-NPP>
p3266
tp3267
(dp3268
VNP|<PP-NPP>
p3269
F0.9
ss(VNC
p3270
g740
tp3271
(dp3272
VNP
p3273
F0.00014001680201624196
sVNP|<NC-PONCT>
p3274
F0.012121212121212121
ss(VNP
p3275
g2964
tp3276
(dp3277
VSsub|<NP-ADV>
p3278
F0.5
ss(VNC
p3279
VNP|<PP-COORD>
p3280
tp3281
(dp3282
VNP
p3283
F0.0008401008120974517
sVNP|<NC-PP>
p3284
F0.024211968935587025
ss(VNC
p3285
VNP|<NP-VPpart>
p3286
tp3287
(dp3288
VNP|<NC-NP>
p3289
F0.06666666666666667
ss(VADV
p3290
VSint|<VN-VPinf>
p3291
tp3292
(dp3293
VSint
p3294
F0.007272727272727273
ss(VNP
p3295
VVPpart|<VN-VPinf>
p3296
tp3297
(dp3298
VVPpart
p3299
F0.002173913043478261
ss(VPONCT
p3300
VCOORD|<CC-AP>
p3301
tp3302
(dp3303
VCOORD
p3304
F0.0006273525721455458
ss(VNP
p3305
VSENT|<PP-NP>
p3306
tp3307
(dp3308
VSENT|<NP-PP>
p3309
F0.007751937984496124
ss(VNP
p3310
VSsub|<PONCT-ADV>
p3311
tp3312
(dp3313
VSsub|<NP-PONCT>
p3314
F0.024390243902439025
ss(VPP
p3315
VSrel|<PP-PONCT>
p3316
tp3317
(dp3318
VSrel|<PP-PP>
p3319
F0.05
ss(VNC
p3320
g1069
tp3321
(dp3322
VNP|<NC-NPP>
p3323
F0.013513513513513514
ss(VNC
p3324
g170
tp3325
(dp3326
VNP
p3327
F7.000840100812098e-05
sVNP|<NC-VPinf>
p3328
F0.02702702702702703
ss(VNP
p3329
VVPinf|<PP-VPinf>
p3330
tp3331
(dp3332
VVPinf|<NP-PP>
p3333
F0.007518796992481203
ss(VPP
p3334
VSrel|<COORD-COORD>
p3335
tp3336
(dp3337
VSrel|<PP-COORD>
p3338
F0.3333333333333333
ss(VADJ
p3339
VPONCT
p3340
tp3341
(dp3342
g1989
F0.14285714285714285
sVAP
p3343
F0.0003620564808110065
sVAP|<ADJ-PONCT>
p3344
F0.47368421052631576
ss(VCC
p3345
g1646
tp3346
(dp3347
VCOORD
p3348
F0.01756587202007528
ss(VVN
p3349
g2321
tp3350
(dp3351
VVPpart
p3352
F0.002173913043478261
ss(VCLO
p3353
VVN|<V-VINF>
p3354
tp3355
(dp3356
VVN
p3357
F0.00022187708009762592
ss(VCLS
p3358
VVN|<CLO-VS>
p3359
tp3360
(dp3361
VVN
p3362
F0.00044375416019525185
ss(VNP
p3363
g2073
tp3364
(dp3365
VSENT|<NP-PONCT>
p3366
F0.010297482837528604
sVSENT
p3367
F0.0008067769261799112
ss(VPONCT
p3368
VVPpart|<COORD-COORD>
p3369
tp3370
(dp3371
VVPpart|<PONCT-COORD>
p3372
F0.16666666666666666
ss(VNC
p3373
VNP|<NC-NC>
p3374
tp3375
(dp3376
VNP
p3377
F7.000840100812098e-05
ss(VVN
p3378
VCOORD|<ADV-VPinf>
p3379
tp3380
(dp3381
VCOORD|<VN-ADV>
p3382
F0.17647058823529413
ss(VNP
p3383
g1623
tp3384
(dp3385
VSsub|<NP-Ssub>
p3386
F1.0
sVSrel|<NP-Ssub>
p3387
F0.5
sg2276
F1.0
sVPP|<NP-Ssub>
p3388
F1.0
sVSint|<NP-Ssub>
p3389
F1.0
sg1500
F1.0
ss(VCC
p3390
VCOORD|<AdP-PONCT>
p3391
tp3392
(dp3393
VCOORD
p3394
F0.0006273525721455458
ss(VPONCT
p3395
VSrel|<VN-NP>
p3396
tp3397
(dp3398
VSrel|<PONCT-VN>
p3399
F0.2
ss(g64
VDET
p3400
tp3401
(dp3402
VPP
p3403
F0.000510073960724305
ss(VCOORD
p3404
VSENT|<COORD-PONCT>
p3405
tp3406
(dp3407
VSENT|<COORD-COORD>
p3408
F0.8
ss(VPP
p3409
VNP|<PP-VPpart>
p3410
tp3411
(dp3412
VNP|<PP-PP>
p3413
F0.011976047904191617
ss(VADJ
p3414
VNP|<NC-NP>
p3415
tp3416
(dp3417
VNP|<ADJ-NC>
p3418
F0.005917159763313609
ss(VNC
p3419
g1745
tp3420
(dp3421
VNP
p3422
F0.0007000840100812098
sg1029
F0.10135135135135136
ss(VADV
p3423
VVPpart|<VPP-NP>
p3424
tp3425
(dp3426
VVPpart
p3427
F0.002173913043478261
ss(VADJ
p3428
g2971
tp3429
(dp3430
VNP
p3431
F0.0003500420050406049
ss(VVN
p3432
VSint|<PONCT-NP>
p3433
tp3434
(dp3435
VSint|<VN-PONCT>
p3436
F0.25
ss(VADJ
p3437
g1761
tp3438
(dp3439
VAP|<ADJ-PP>
p3440
F0.05263157894736842
sVAP
p3441
F0.0010861694424330196
ss(VCOORD
p3442
VSENT|<PONCT-Ssub>
p3443
tp3444
(dp3445
g3405
F0.014563106796116505
ss(VVN
p3446
VVPpart|<ADV-VPinf>
p3447
tp3448
(dp3449
VVPpart
p3450
F0.002173913043478261
sVVPpart|<VN-ADV>
p3451
F0.25
ss(VAP
p3452
VNP|<VPpart-Srel>
p3453
tp3454
(dp3455
VNP|<AP-VPpart>
p3456
F0.041666666666666664
ss(VNP
p3457
g431
tp3458
(dp3459
VPP|<NP-COORD>
p3460
F0.0047169811320754715
ss(VNPP
p3461
VNP|<PONCT-Srel>
p3462
tp3463
(dp3464
VNP
p3465
F0.00021002520302436292
sVNP|<NPP-PONCT>
p3466
F0.08284023668639054
ss(VPONCT
p3467
VNP|<ADJ-PONCT>
p3468
tp3469
(dp3470
VNP
p3471
F7.000840100812098e-05
ss(VAP
p3472
VNP|<NPP-NPP>
p3473
tp3474
(dp3475
VNP|<AP-NPP>
p3476
F0.42857142857142855
ss(VPRO
p3477
VNP|<PP-PONCT>
p3478
tp3479
(dp3480
VNP
p3481
F0.00014001680201624196
sVNP|<PRO-PP>
p3482
F0.038461538461538464
ss(VNP
p3483
VPP|<P-NP>
p3484
tp3485
(dp3486
VPP
p3487
F0.0019127773527161439
ss(VNP
p3488
VSENT|<VN-VPinf>
p3489
tp3490
(dp3491
VSENT|<NP-VN>
p3492
F0.1462140992167102
sVSENT
p3493
F0.035498184751916094
ss(VPONCT
p3494
VSENT|<VPinf-COORD>
p3495
tp3496
(dp3497
VSENT|<PONCT-VPinf>
p3498
F0.018867924528301886
ss(VPONCT
p3499
VNP|<NPP-PP>
p3500
tp3501
(dp3502
VNP|<PONCT-NPP>
p3503
F0.2
ss(VPONCT
p3504
g1107
tp3505
(dp3506
VSrel
p3507
F0.002150537634408602
ss(VNC
p3508
VVPinf
p3509
tp3510
(dp3511
VNP
p3512
F0.0008401008120974517
sVNP|<NC-VPinf>
p3513
F0.972972972972973
ss(VPONCT
p3514
VSsub|<ADV-PONCT>
p3515
tp3516
(dp3517
VSsub|<PONCT-ADV>
p3518
F0.25
ss(VVN
p3519
VVPpart|<PP-Ssub>
p3520
tp3521
(dp3522
VVPpart
p3523
F0.002173913043478261
ss(VPP
p3524
VSENT|<PP-VPinf>
p3525
tp3526
(dp3527
VSENT|<PP-PP>
p3528
F0.007874015748031496
ss(VADJ
p3529
VNP|<PONCT-NP>
p3530
tp3531
(dp3532
VNP|<ADJ-PONCT>
p3533
F0.2857142857142857
ss(VVN
p3534
g1540
tp3535
(dp3536
VSENT|<VN-PP>
p3537
F0.002717391304347826
ss(VPP
p3538
VSsub|<PONCT-VN>
p3539
tp3540
(dp3541
VSsub|<PP-PONCT>
p3542
F0.20930232558139536
ss(VNC
p3543
VNP|<PP-PP>
p3544
tp3545
(dp3546
VNP
p3547
F0.004830579669560347
sVNP|<NC-PP>
p3548
F0.09227957971676565
ss(VCLS
p3549
VVN|<ADV-VPP>
p3550
tp3551
(dp3552
VVN|<CLS-ADV>
p3553
F1.0
ss(VADV
p3554
VSrel|<PP-Ssub>
p3555
tp3556
(dp3557
VSrel|<ADV-PP>
p3558
F0.05555555555555555
ss(VP+D
p3559
VPP|<NP-COORD>
p3560
tp3561
(dp3562
VPP
p3563
F0.006375924509053813
sVPP|<P+D-NP>
p3564
F0.18181818181818182
ss(VCC
p3565
VSsub
p3566
tp3567
(dp3568
VCOORD|<CC-Ssub>
p3569
F1.0
sVCOORD
p3570
F0.013801756587202008
ss(VVN
p3571
g2392
tp3572
(dp3573
VVPinf
p3574
F0.0017985611510791368
sVVPinf|<VN-NP>
p3575
F0.005934718100890208
ss(VPONCT
p3576
VVPinf|<NP-PONCT>
p3577
tp3578
(dp3579
VVPinf|<PONCT-NP>
p3580
F0.5
ss(VAP
p3581
VCOORD
p3582
tp3583
(dp3584
VNP|<AP-COORD>
p3585
F0.75
sVSrel|<AP-COORD>
p3586
F1.0
sg1024
F1.0
sVSint|<AP-COORD>
p3587
F1.0
sg811
F1.0
ss(g232
g367
tp3588
(dp3589
VVN|<V-VPP>
p3590
F0.004347826086956522
sVVN
p3591
F0.0006656312402928778
ss(VPREF
p3592
VNP|<NC-VPpart>
p3593
tp3594
(dp3595
VNP
p3596
F0.00014001680201624196
ss(VADJ
p3597
g2696
tp3598
(dp3599
VNP
p3600
F7.000840100812098e-05
sg2590
F0.041998551774076756
sVAP|<ADJ-PP>
p3601
F0.7368421052631579
sVNP|<ADJ-PP>
p3602
F0.5
ss(g232
VCOORD
p3603
tp3604
(dp3605
g1212
F1.0
sVVN
p3606
F0.00044375416019525185
ss(VVN
p3607
g698
tp3608
(dp3609
g992
F0.14285714285714285
ss(VNP
p3610
VSENT|<ADV-COORD>
p3611
tp3612
(dp3613
VSENT|<NP-ADV>
p3614
F0.25
ss(VPONCT
p3615
g3108
tp3616
(dp3617
VNP|<PONCT-NP>
p3618
F0.5862068965517241
ss(VCS
p3619
g2676
tp3620
(dp3621
VSsub
p3622
F0.006920415224913495
ss(VADV
p3623
VNP|<PONCT-COORD>
p3624
tp3625
(dp3626
VNP|<ADV-PONCT>
p3627
F0.14285714285714285
ss(VP+D
p3628
VPP|<NP-PONCT>
p3629
tp3630
(dp3631
g221
F0.00102014792144861
sVPP|<P+D-NP>
p3632
F0.18181818181818182
ss(VVN
p3633
VVPinf|<PP-COORD>
p3634
tp3635
(dp3636
VVPinf
p3637
F0.0044964028776978415
sVVPinf|<VN-PP>
p3638
F0.04504504504504504
ss(VVN
p3639
g206
tp3640
(dp3641
VSsub|<VN-PP>
p3642
F0.009708737864077669
ss(VNC
p3643
VNP|<NPP-Srel>
p3644
tp3645
(dp3646
VNP|<NC-NPP>
p3647
F0.013513513513513514
ss(VCC
p3648
g2217
tp3649
(dp3650
VCOORD|<CC-PONCT>
p3651
F1.0
sVCOORD
p3652
F0.0012547051442910915
ss(VVPinf
p3653
VSENT|<VN-PP>
p3654
tp3655
(dp3656
VSENT
p3657
F0.0004033884630899556
ss(VDET
p3658
VADJ
p3659
tp3660
(dp3661
VNP
p3662
F0.0013301596191542986
ss(g64
g1639
tp3663
(dp3664
VVPinf
p3665
F0.09352517985611511
ss(VPONCT
p3666
VSENT|<VN-PP>
p3667
tp3668
(dp3669
VSENT|<PONCT-VN>
p3670
F0.17857142857142858
ss(VADV
p3671
g3602
tp3672
(dp3673
VNP|<ADV-ADJ>
p3674
F0.08333333333333333
ss(VCS
p3675
VAP
p3676
tp3677
(dp3678
VSsub
p3679
F0.00865051903114187
ss(VCOORD
p3680
VPP|<COORD-PONCT>
p3681
tp3682
(dp3683
VPP|<COORD-COORD>
p3684
F0.07692307692307693
ss(VNC
p3685
VPP
p3686
tp3687
(dp3688
VNP|<NC-PP>
p3689
F0.752855185015989
sVNP
p3690
F0.05495659479137496
sVPP|<NC-PP>
p3691
F1.0
ss(VNP
p3692
VVPinf|<PONCT-NP>
p3693
tp3694
(dp3695
VVPinf|<NP-PONCT>
p3696
F0.17142857142857143
ss(VPONCT
p3697
VVPpart|<PONCT-PP>
p3698
tp3699
(dp3700
g1376
F0.5
ss(VVN
p3701
VSrel|<PONCT-NP>
p3702
tp3703
(dp3704
VSrel|<VN-PONCT>
p3705
F0.14285714285714285
ss(g232
VVN|<VPP-AdP>
p3706
tp3707
(dp3708
VVN
p3709
F0.00022187708009762592
ss(VVPinf
p3710
g2749
tp3711
(dp3712
VSsub|<VPinf-PONCT>
p3713
F0.06666666666666667
ss(VNPP
p3714
VNP|<VPpart-COORD>
p3715
tp3716
(dp3717
VNP|<NPP-VPpart>
p3718
F0.16666666666666666
ss(VADV
p3719
VSint|<PONCT-NP>
p3720
tp3721
(dp3722
g387
F0.3333333333333333
ss(VPONCT
p3723
VNP|<PP-Srel>
p3724
tp3725
(dp3726
VNP|<PONCT-PP>
p3727
F0.028037383177570093
ss(VCC
p3728
VNP|<DET-NC>
p3729
tp3730
(dp3731
VNP|<CC-DET>
p3732
F1.0
ss(VADV
p3733
VSENT|<AP-COORD>
p3734
tp3735
(dp3736
VSENT|<ADV-AP>
p3737
F0.07142857142857142
ss(VVN
p3738
VSENT|<COORD-COORD>
p3739
tp3740
(dp3741
VSENT|<VN-COORD>
p3742
F0.06666666666666667
ss(VPONCT
p3743
VSENT|<Sint-Sint>
p3744
tp3745
(dp3746
VSENT|<PONCT-Sint>
p3747
F0.012195121951219513
ss(VVPpart
p3748
VSENT|<PONCT-NP>
p3749
tp3750
(dp3751
VSENT|<VPpart-PONCT>
p3752
F0.022727272727272728
sVSENT
p3753
F0.005647438483259379
ss(VVN
p3754
g309
tp3755
(dp3756
VSrel|<VN-COORD>
p3757
F0.16666666666666666
ss(VPONCT
p3758
VCOORD|<ADV-ADV>
p3759
tp3760
(dp3761
VCOORD|<PONCT-ADV>
p3762
F0.2
ss(VNPP
p3763
VPP
p3764
tp3765
(dp3766
VNP
p3767
F0.0017502100252030244
sVNP|<NPP-PP>
p3768
F0.835820895522388
ss(VPP
p3769
VVPP
p3770
tp3771
(dp3772
VVN|<PP-VPP>
p3773
F1.0
ss(VADJ
p3774
VAP
p3775
tp3776
(dp3777
VAP
p3778
F0.001448225923244026
ss(VPONCT
p3779
VSsub|<VN-PP>
p3780
tp3781
(dp3782
VSsub|<PONCT-VN>
p3783
F0.22580645161290322
ss(VADJWH
p3784
VSrel
p3785
tp3786
(dp3787
VNP
p3788
F7.000840100812098e-05
ss(VADV
p3789
VNP|<NC-NP>
p3790
tp3791
(dp3792
VNP
p3793
F7.000840100812098e-05
ss(g232
g3553
tp3794
(dp3795
VVN
p3796
F0.00022187708009762592
ss(VVN
p3797
VSsub|<COORD-COORD>
p3798
tp3799
(dp3800
VSsub|<VN-COORD>
p3801
F0.14285714285714285
ss(VAP
p3802
VNP|<COORD-PONCT>
p3803
tp3804
(dp3805
VNP|<AP-COORD>
p3806
F0.027777777777777776
ss(VNP
p3807
VCOORD|<PONCT-ADV>
p3808
tp3809
(dp3810
g2521
F0.18181818181818182
ss(VNPP
p3811
VNP
p3812
tp3813
(dp3814
VNP
p3815
F7.000840100812098e-05
sg244
F1.0
ss(VPONCT
p3816
VNP|<COORD-PP>
p3817
tp3818
(dp3819
VNP|<PONCT-COORD>
p3820
F0.028985507246376812
ss(VSint
p3821
VPP
p3822
tp3823
(dp3824
g1824
F1.0
ss(VPONCT
p3825
VSENT|<PONCT-VPinf>
p3826
tp3827
(dp3828
VSENT
p3829
F0.0008067769261799112
sVSENT|<PONCT-PONCT>
p3830
F0.00909090909090909
ss(VET
p3831
VNP|<ET-NC>
p3832
tp3833
(dp3834
VNP|<ET-ET>
p3835
F0.015151515151515152
ss(VNC
p3836
VNP|<ET-ET>
p3837
tp3838
(dp3839
VNP
p3840
F7.000840100812098e-05
sVNP|<NC-ET>
p3841
F0.25
ss(VCC
p3842
VCOORD|<PP-COORD>
p3843
tp3844
(dp3845
VCOORD
p3846
F0.0012547051442910915
ss(VNP
p3847
VPP
p3848
tp3849
(dp3850
VSint|<NP-PP>
p3851
F0.42857142857142855
sg3200
F0.7916666666666666
sg1911
F0.8285714285714286
sVVPinf|<NP-PP>
p3852
F0.8045112781954887
sg2049
F0.6363636363636364
sVPP|<NP-PP>
p3853
F0.9523809523809523
sVCOORD|<NP-PP>
p3854
F0.85
sVSENT|<NP-PP>
p3855
F0.007751937984496124
sVVPpart|<NP-PP>
p3856
F0.78125
sVSENT
p3857
F0.0004033884630899556
ss(VPONCT
p3858
VAP|<COORD-COORD>
p3859
tp3860
(dp3861
VAP|<PONCT-COORD>
p3862
F0.2
ss(VPONCT
p3863
VNP|<NP-VPpart>
p3864
tp3865
(dp3866
VNP|<PONCT-NP>
p3867
F0.0021551724137931034
ss(VCLS
p3868
VVN|<ADV-VS>
p3869
tp3870
(dp3871
VVN
p3872
F0.00044375416019525185
ss(VDET
p3873
VNP|<AP-COORD>
p3874
tp3875
(dp3876
VNP
p3877
F7.000840100812098e-05
ss(VVN
p3878
g2457
tp3879
(dp3880
VSint
p3881
F0.0036363636363636364
ss(VPP
p3882
VSENT|<PONCT-VN>
p3883
tp3884
(dp3885
VSENT|<PP-PONCT>
p3886
F0.03153153153153153
sVSENT
p3887
F0.021379588543767647
ss(VADV
p3888
VSsub|<PONCT-NP>
p3889
tp3890
(dp3891
g3515
F0.25
ss(VADV
p3892
VSENT|<NP-VN>
p3893
tp3894
(dp3895
VSENT
p3896
F0.0012101653892698668
ss(VVN
p3897
VCOORD
p3898
tp3899
(dp3900
VSrel|<VN-COORD>
p3901
F0.6666666666666666
sVVPinf
p3902
F0.0017985611510791368
sVSint|<VN-COORD>
p3903
F1.0
sg625
F0.5714285714285714
sg3064
F1.0
ss(VPRO
p3904
VNP|<PP-COORD>
p3905
tp3906
(dp3907
VNP|<PRO-PP>
p3908
F0.038461538461538464
ss(VADV
p3909
VVPinf|<NP-VPinf>
p3910
tp3911
(dp3912
VVPinf|<ADV-NP>
p3913
F0.09090909090909091
ss(VVN
p3914
g699
tp3915
(dp3916
g2601
F1.0
ss(g232
VVN|<PONCT-PP>
p3917
tp3918
(dp3919
VVN
p3920
F0.00022187708009762592
ss(VVN
p3921
VVPinf|<PONCT-Ssub>
p3922
tp3923
(dp3924
VVPinf
p3925
F0.0017985611510791368
ss(VPP
p3926
VSENT|<ADV-PP>
p3927
tp3928
(dp3929
VSENT|<PP-ADV>
p3930
F0.5
ss(VNP
p3931
VPP|<PONCT-PP>
p3932
tp3933
(dp3934
VPP|<NP-PONCT>
p3935
F0.0196078431372549
ss(VCC
p3936
VCOORD|<NP-NP>
p3937
tp3938
(dp3939
g3442
F0.002509410288582183
ss(VET
p3940
VAP
p3941
tp3942
(dp3943
VNP|<ET-AP>
p3944
F1.0
ss(VADV
p3945
VNP|<DET-NC>
p3946
tp3947
(dp3948
VNP
p3949
F0.002940352842341081
ss(VAP
p3950
VNP|<NC-PONCT>
p3951
tp3952
(dp3953
VNP|<AP-NC>
p3954
F0.09090909090909091
ss(VSsub
p3955
VSint|<PONCT-VN>
p3956
tp3957
(dp3958
VSint
p3959
F0.007272727272727273
ss(g1249
VNP|<PONCT-Srel>
p3960
tp3961
(dp3962
VNP|<VPpart-PONCT>
p3963
F0.09803921568627451
ss(VPONCT
p3964
VSint|<VN-NP>
p3965
tp3966
(dp3967
VSint
p3968
F0.03636363636363636
sVSint|<PONCT-VN>
p3969
F0.3181818181818182
ss(VVPpart
p3970
VVPinf|<PONCT-PP>
p3971
tp3972
(dp3973
g2039
F1.0
ss(VCOORD
p3974
VSsub|<VN-PP>
p3975
tp3976
(dp3977
g707
F1.0
ss(VPP
p3978
VNP|<VPpart-COORD>
p3979
tp3980
(dp3981
VNP|<PP-VPpart>
p3982
F0.01282051282051282
ss(VCOORD
p3983
VSENT|<NP-PONCT>
p3984
tp3985
(dp3986
VSENT|<COORD-NP>
p3987
F1.0
ss(VADV
p3988
VVPinf|<PONCT-PP>
p3989
tp3990
(dp3991
VVPinf|<ADV-PONCT>
p3992
F0.2
ss(VCLR
p3993
VVN|<V-VPP>
p3994
tp3995
(dp3996
VVN|<CLR-V>
p3997
F0.06896551724137931
sg1635
F0.007321943643221655
ss(VNP
p3998
VSrel|<VN-PONCT>
p3999
tp4000
(dp4001
VSrel|<NP-VN>
p4002
F0.038461538461538464
sVSrel
p4003
F0.0064516129032258064
ss(VCC
p4004
VCOORD|<ADV-ADV>
p4005
tp4006
(dp4007
VCOORD
p4008
F0.0006273525721455458
ss(VPP
p4009
VSsub|<Ssub-PONCT>
p4010
tp4011
(dp4012
VSsub|<PP-Ssub>
p4013
F1.0
ss(VPRO
p4014
VNP|<PONCT-PP>
p4015
tp4016
(dp4017
VNP
p4018
F0.00021002520302436292
ss(VAdP
p4019
VVPinf|<PONCT-Ssub>
p4020
tp4021
(dp4022
VVPinf|<AdP-PONCT>
p4023
F0.5
ss(VCLR
p4024
VVN|<VINF-VINF>
p4025
tp4026
(dp4027
VVN
p4028
F0.00044375416019525185
ss(VADJ
p4029
g1225
tp4030
(dp4031
VAP|<ADJ-PONCT>
p4032
F0.05263157894736842
ss(VPP
p4033
VSrel|<VN-VPinf>
p4034
tp4035
(dp4036
VSrel
p4037
F0.015053763440860216
ss(g232
g1043
tp4038
(dp4039
VVN
p4040
F0.002440647881073885
ss(VCLO
p4041
VVN|<V-ADV>
p4042
tp4043
(dp4044
VVN|<CLO-V>
p4045
F0.04
sVVN
p4046
F0.0008875083203905037
ss(VVN
p4047
VSENT|<PONCT-PONCT>
p4048
tp4049
(dp4050
VSENT|<VN-PONCT>
p4051
F0.0375
ss(VVN
p4052
VSENT|<ADV-AP>
p4053
tp4054
(dp4055
VSENT|<VN-ADV>
p4056
F0.10396039603960396
sVSENT
p4057
F0.0028237192416296895
ss(VVN
p4058
VSint|<AP-PONCT>
p4059
tp4060
(dp4061
VSint
p4062
F0.0036363636363636364
ss(VCOORD
p4063
VNP|<PONCT-PP>
p4064
tp4065
(dp4066
VNP|<COORD-PONCT>
p4067
F0.08333333333333333
ss(VADV
p4068
VVPinf|<VN-NP>
p4069
tp4070
(dp4071
VVPinf
p4072
F0.002697841726618705
sg605
F0.5
ss(VPRO
p4073
VAP|<ADJ-PP>
p4074
tp4075
(dp4076
VAP
p4077
F0.0003620564808110065
ss(VNP
p4078
VNP|<PONCT-VPpart>
p4079
tp4080
(dp4081
VNP|<NP-PONCT>
p4082
F0.05263157894736842
ss(VAP
p4083
VNP|<AP-AP>
p4084
tp4085
(dp4086
VNP|<AP-AP>
p4087
F0.018292682926829267
ss(VNC
p4088
VNP|<ADJ-VPpart>
p4089
tp4090
(dp4091
VNP
p4092
F7.000840100812098e-05
ss(VAP
p4093
VSENT|<PP-PONCT>
p4094
tp4095
(dp4096
VSENT|<AP-PP>
p4097
F0.6666666666666666
ss(g502
g2082
tp4098
(dp4099
VSsub|<VN-VPinf>
p4100
F0.08974358974358974
ss(g64
VPP|<NP-PONCT>
p4101
tp4102
(dp4103
VPP
p4104
F0.0033154807447079828
sVPP|<P-NP>
p4105
F0.07246376811594203
ss(VADJ
p4106
VNP|<NPP-PP>
p4107
tp4108
(dp4109
VNP
p4110
F0.00014001680201624196
sVNP|<ADJ-NPP>
p4111
F0.18181818181818182
ss(VPONCT
p4112
g1664
tp4113
(dp4114
VCOORD|<PONCT-ADV>
p4115
F0.6
ss(VAP
p4116
VSENT|<PONCT-ADV>
p4117
tp4118
(dp4119
VSENT|<AP-PONCT>
p4120
F0.015384615384615385
ss(VPONCT
p4121
VCOORD|<PP-PP>
p4122
tp4123
(dp4124
VCOORD
p4125
F0.0012547051442910915
ss(VADV
p4126
VNP|<P-NC>
p4127
tp4128
(dp4129
VNP
p4130
F0.0012601512181461775
sVNP|<ADV-P>
p4131
F1.0
ss(VPRO
p4132
VNP|<VPinf-COORD>
p4133
tp4134
(dp4135
VNP
p4136
F7.000840100812098e-05
ss(VAP
p4137
VNPP
p4138
tp4139
(dp4140
g2864
F0.2857142857142857
ss(VVPP
p4141
VVPpart|<ADV-PONCT>
p4142
tp4143
(dp4144
VVPpart|<VPP-ADV>
p4145
F0.5
ss(VVN
p4146
g1335
tp4147
(dp4148
VVPinf
p4149
F0.002697841726618705
sVCOORD|<VN-AdP>
p4150
F0.5
sVVPinf|<VN-AdP>
p4151
F0.2
sg3142
F0.3333333333333333
ss(VPP
p4152
VNP|<AP-VPpart>
p4153
tp4154
(dp4155
VNP|<PP-AP>
p4156
F0.04918032786885246
ss(VPP
p4157
VSrel|<PONCT-NP>
p4158
tp4159
(dp4160
VSrel|<PP-PONCT>
p4161
F0.15789473684210525
ss(g232
g3773
tp4162
(dp4163
VVN
p4164
F0.0006656312402928778
ss(VNP
p4165
VSsub|<PONCT-VN>
p4166
tp4167
(dp4168
g831
F0.3902439024390244
ss(VPONCT
p4169
VCOORD|<VPpart-NP>
p4170
tp4171
(dp4172
g1390
F0.5
ss(VADV
p4173
VVPpart|<VPP-VPinf>
p4174
tp4175
(dp4176
VVPpart
p4177
F0.0010869565217391304
ss(VPONCT
p4178
VSint|<I-Sint>
p4179
tp4180
(dp4181
VSint|<PONCT-I>
p4182
F1.0
ss(g64
VNP|<NC-COORD>
p4183
tp4184
(dp4185
VNP|<P-NC>
p4186
F0.043478260869565216
ss(VPP
p4187
VSENT|<VPinf-PONCT>
p4188
tp4189
(dp4190
VSENT
p4191
F0.0004033884630899556
sVSENT|<PP-VPinf>
p4192
F0.9230769230769231
ss(VAP
p4193
VPONCT
p4194
tp4195
(dp4196
VAP|<AP-PONCT>
p4197
F0.5
sVVPinf|<AP-PONCT>
p4198
F0.5
sVNP|<AP-PONCT>
p4199
F0.0880503144654088
sg1706
F1.0
sVSENT|<AP-PONCT>
p4200
F0.6923076923076923
sVSENT
p4201
F0.0016135538523598225
ss(VPONCT
p4202
g3651
tp4203
(dp4204
VCOORD
p4205
F0.0006273525721455458
ss(VNP
p4206
VNP|<COORD-PONCT>
p4207
tp4208
(dp4209
VNP|<NP-COORD>
p4210
F0.2857142857142857
ss(VNP
p4211
VSENT|<NP-PONCT>
p4212
tp4213
(dp4214
VSENT|<NP-NP>
p4215
F0.75
sVSENT
p4216
F0.0004033884630899556
ss(VNP
p4217
g225
tp4218
(dp4219
VSENT|<NP-PP>
p4220
F0.7209302325581395
sVSENT
p4221
F0.0024203307785397336
ss(VAP
p4222
VSENT|<PONCT-VPpart>
p4223
tp4224
(dp4225
VSENT|<AP-PONCT>
p4226
F0.046153846153846156
ss(VCOORD
p4227
VSENT|<PONCT-VPinf>
p4228
tp4229
(dp4230
VSENT|<COORD-PONCT>
p4231
F0.014563106796116505
ss(VAP
p4232
VNP|<PONCT-VPpart>
p4233
tp4234
(dp4235
VNP|<AP-PONCT>
p4236
F0.12578616352201258
ss(g64
g3388
tp4237
(dp4238
VPP|<P-NP>
p4239
F0.07246376811594203
ss(VCOORD
p4240
VVPpart
p4241
tp4242
(dp4243
VNP|<COORD-VPpart>
p4244
F0.6666666666666666
ss(VVN
p4245
g2514
tp4246
(dp4247
VSsub|<VN-NP>
p4248
F0.16993464052287582
ss(VCC
p4249
VCOORD|<VN-VPinf>
p4250
tp4251
(dp4252
VCOORD
p4253
F0.010037641154328732
ss(VSsub
p4254
VSsub|<PONCT-ADV>
p4255
tp4256
(dp4257
VSsub|<Ssub-PONCT>
p4258
F0.07692307692307693
ss(VCS
p4259
VSsub|<VN-VPpart>
p4260
tp4261
(dp4262
VSsub
p4263
F0.0017301038062283738
ss(VCLO
p4264
VVN|<V-CLS>
p4265
tp4266
(dp4267
VVN
p4268
F0.0006656312402928778
ss(VPP
p4269
VSrel|<VN-COORD>
p4270
tp4271
(dp4272
VSrel
p4273
F0.002150537634408602
ss(VPONCT
p4274
VSrel|<NP-VN>
p4275
tp4276
(dp4277
g2621
F0.2222222222222222
ss(VVN
p4278
VVPinf|<PONCT-PP>
p4279
tp4280
(dp4281
VVPinf
p4282
F0.00539568345323741
ss(VPP
p4283
VNP|<PONCT-AP>
p4284
tp4285
(dp4286
VNP|<PP-PONCT>
p4287
F0.02247191011235955
ss(VVN
p4288
g2243
tp4289
(dp4290
VSint
p4291
F0.014545454545454545
sVSint|<VN-NP>
p4292
F0.1956521739130435
ss(VVN
p4293
VSint|<PP-PP>
p4294
tp4295
(dp4296
VSint
p4297
F0.014545454545454545
sVSint|<VN-PP>
p4298
F0.11428571428571428
ss(VADV
p4299
g2697
tp4300
(dp4301
VPP|<ADV-P+D>
p4302
F1.0
sVPP
p4303
F0.00102014792144861
ss(VCC
p4304
VVPP
p4305
tp4306
(dp4307
VCOORD
p4308
F0.003136762860727729
ss(VADV
p4309
VVN|<CLR-V>
p4310
tp4311
(dp4312
g1355
F1.0
sVVN
p4313
F0.0015531395606833815
ss(VADV
p4314
VSint|<AP-PONCT>
p4315
tp4316
(dp4317
VSint|<ADV-AP>
p4318
F0.25
ss(VVN
p4319
VSint|<NP-VPinf>
p4320
tp4321
(dp4322
VSint
p4323
F0.0036363636363636364
ss(VVPpart
p4324
VSsub
p4325
tp4326
(dp4327
VNP|<VPpart-Ssub>
p4328
F1.0
ss(VPRO
p4329
g4328
tp4330
(dp4331
g142
F1.0
ss(VPONCT
p4332
VSENT|<ADV-PP>
p4333
tp4334
(dp4335
VSENT|<PONCT-ADV>
p4336
F0.35714285714285715
ss(VNP
p4337
VSint|<VN-VPinf>
p4338
tp4339
(dp4340
VSint|<NP-VN>
p4341
F0.041666666666666664
sVSint
p4342
F0.08363636363636363
ss(VSsub
p4343
VVPinf|<PONCT-VPpart>
p4344
tp4345
(dp4346
VVPinf|<Ssub-PONCT>
p4347
F0.25
ss(VADV
p4348
VNP|<AP-PP>
p4349
tp4350
(dp4351
VNP|<ADV-AP>
p4352
F0.3333333333333333
ss(VNP
p4353
VVPinf|<COORD-COORD>
p4354
tp4355
(dp4356
VVPinf|<NP-COORD>
p4357
F0.043478260869565216
ss(VPP
p4358
VAP|<PONCT-PP>
p4359
tp4360
(dp4361
VAP|<PP-PONCT>
p4362
F0.5
ss(VNC
p4363
VNP|<ET-NP>
p4364
tp4365
(dp4366
VNP
p4367
F7.000840100812098e-05
ss(VPP
p4368
VAP
p4369
tp4370
(dp4371
VNP|<PP-AP>
p4372
F0.639344262295082
ss(VNPP
p4373
g3944
tp4374
(dp4375
VNP
p4376
F7.000840100812098e-05
ss(VPONCT
p4377
g1310
tp4378
(dp4379
g551
F0.75
ss(VADV
p4380
VVPpart|<VPP-PP>
p4381
tp4382
(dp4383
VVPpart
p4384
F0.015217391304347827
ss(VNP
p4385
VCOORD|<PONCT-PP>
p4386
tp4387
(dp4388
g2777
F0.18181818181818182
ss(VPP
p4389
VSsub|<VN-VPinf>
p4390
tp4391
(dp4392
VSsub|<PP-VN>
p4393
F0.2
sVSsub
p4394
F0.0017301038062283738
ss(VNC
p4395
g693
tp4396
(dp4397
VNP|<NC-AP>
p4398
F0.0008278145695364238
ss(VVPinf
p4399
VVPinf|<PONCT-PP>
p4400
tp4401
(dp4402
g2935
F1.0
ss(VNP
p4403
g3901
tp4404
(dp4405
VSrel
p4406
F0.010752688172043012
ss(VPRO
p4407
VCOORD
p4408
tp4409
(dp4410
VNP
p4411
F0.00014001680201624196
sVNP|<PRO-COORD>
p4412
F1.0
ss(VPONCT
p4413
g2538
tp4414
(dp4415
g49
F0.2357142857142857
sVSENT
p4416
F0.0012101653892698668
ss(VVINF
p4417
VCOORD
p4418
tp4419
(dp4420
VVN
p4421
F0.00022187708009762592
ss(VSsub
p4422
VSint|<PONCT-Ssub>
p4423
tp4424
(dp4425
VSint|<Ssub-PONCT>
p4426
F0.5
ss(VPP
p4427
VSENT|<PONCT-VPinf>
p4428
tp4429
(dp4430
VSENT|<PP-PONCT>
p4431
F0.03303303303303303
sVSENT
p4432
F0.0012101653892698668
ss(VVN
p4433
VSrel|<PP-COORD>
p4434
tp4435
(dp4436
VSrel|<VN-PP>
p4437
F0.023622047244094488
ss(VPP
p4438
g2978
tp4439
(dp4440
VSrel
p4441
F0.002150537634408602
ss(g64
VPRO
p4442
tp4443
(dp4444
VPP
p4445
F0.00102014792144861
sVNP|<P-PRO>
p4446
F0.25
ss(VADJ
p4447
VPRO
p4448
tp4449
(dp4450
VNP
p4451
F0.0002800336040324839
ss(VPP
p4452
VSint|<PONCT-VPinf>
p4453
tp4454
(dp4455
VSint|<PP-PONCT>
p4456
F0.038461538461538464
ss(VADJ
p4457
VNP|<NC-AP>
p4458
tp4459
(dp4460
VNP|<ADJ-NC>
p4461
F0.11242603550295859
sVNP
p4462
F0.0017502100252030244
ss(VVN
p4463
VVPpart|<AdP-NP>
p4464
tp4465
(dp4466
VVPpart
p4467
F0.0010869565217391304
ss(VPP
p4468
VSint|<PONCT-VN>
p4469
tp4470
(dp4471
VSint
p4472
F0.025454545454545455
sVSint|<PP-PONCT>
p4473
F0.07692307692307693
ss(VCLS
p4474
VVN|<CLR-V>
p4475
tp4476
(dp4477
VVN
p4478
F0.01087197692478367
ss(VPP
p4479
VVPpart|<NP-COORD>
p4480
tp4481
(dp4482
VVPpart|<PP-NP>
p4483
F0.125
ss(VPONCT
p4484
VNP|<PP-PP>
p4485
tp4486
(dp4487
VNP|<PONCT-PP>
p4488
F0.028037383177570093
ss(VSsub
p4489
VSint|<PONCT-NP>
p4490
tp4491
(dp4492
VSint
p4493
F0.01090909090909091
sVSint|<Ssub-PONCT>
p4494
F0.5
ss(VDET
p4495
VNP|<PONCT-NP>
p4496
tp4497
(dp4498
VNP|<DET-PONCT>
p4499
F0.3333333333333333
ss(VVN
p4500
VSrel|<PP-Ssub>
p4501
tp4502
(dp4503
VSrel|<VN-PP>
p4504
F0.007874015748031496
ss(VVN
p4505
g2097
tp4506
(dp4507
VSrel|<VN-PP>
p4508
F0.047244094488188976
ss(VADV
p4509
g138
tp4510
(dp4511
VAP
p4512
F0.0010861694424330196
ss(VADV
p4513
VSsub|<PONCT-PP>
p4514
tp4515
(dp4516
VSsub|<ADV-PONCT>
p4517
F0.25
ss(VPONCT
p4518
VNP|<DET-NPP>
p4519
tp4520
(dp4521
VNP
p4522
F0.00021002520302436292
ss(VPP
p4523
VSsub
p4524
tp4525
(dp4526
VSint|<PP-Ssub>
p4527
F1.0
sg2581
F1.0
sg162
F1.0
sVVPinf|<PP-Ssub>
p4528
F0.8333333333333334
sg3520
F1.0
sVNP|<PP-Ssub>
p4529
F0.6666666666666666
ss(VNP
p4530
VSsub|<VN-COORD>
p4531
tp4532
(dp4533
VSsub|<NP-VN>
p4534
F0.014545454545454545
ss(VVN
p4535
VSENT|<NP-NP>
p4536
tp4537
(dp4538
VSENT|<VN-NP>
p4539
F0.021052631578947368
sVSENT
p4540
F0.0004033884630899556
ss(VPONCT
p4541
VSint|<VN-PONCT>
p4542
tp4543
(dp4544
VSint
p4545
F0.007272727272727273
ss(VPONCT
p4546
VVPinf
p4547
tp4548
(dp4549
VSint|<PONCT-VPinf>
p4550
F1.0
sVVPinf|<PONCT-VPinf>
p4551
F1.0
sVSsub|<PONCT-VPinf>
p4552
F0.42857142857142855
sVCOORD
p4553
F0.0012547051442910915
sg946
F1.0
sVPP|<PONCT-VPinf>
p4554
F1.0
sVSrel|<PONCT-VPinf>
p4555
F1.0
sVNP|<PONCT-VPinf>
p4556
F0.5
sVAP|<PONCT-VPinf>
p4557
F1.0
ss(VAP
p4558
VSint|<PONCT-NP>
p4559
tp4560
(dp4561
g4059
F0.5
ss(VCS
p4562
VSsub|<VN-NP>
p4563
tp4564
(dp4565
VSsub|<CS-VN>
p4566
F0.3333333333333333
sVSsub
p4567
F0.12283737024221453
ss(VPRO
p4568
VVPpart
p4569
tp4570
(dp4571
VNP
p4572
F0.00021002520302436292
ss(VAdP
p4573
VPP|<P-NP>
p4574
tp4575
(dp4576
VPP
p4577
F0.00012751849018107625
ss(VSrel
p4578
VNP|<PONCT-COORD>
p4579
tp4580
(dp4581
VNP|<Srel-PONCT>
p4582
F0.11764705882352941
ss(VPP
p4583
g1140
tp4584
(dp4585
g1415
F0.12359550561797752
ss(VNP
p4586
VSsub|<VN-NP>
p4587
tp4588
(dp4589
g880
F0.24363636363636362
sVSsub
p4590
F0.0017301038062283738
ss(VPONCT
p4591
VSENT|<PP-PONCT>
p4592
tp4593
(dp4594
VSENT|<PONCT-PP>
p4595
F0.9166666666666666
sVSENT
p4596
F0.005647438483259379
ss(VVN
p4597
g289
tp4598
(dp4599
VSint
p4600
F0.0036363636363636364
sVSint|<VN-AdP>
p4601
F0.3333333333333333
ss(VNP
p4602
VSENT|<PP-Ssub>
p4603
tp4604
(dp4605
VSENT|<NP-PP>
p4606
F0.023255813953488372
ss(VADV
p4607
g368
tp4608
(dp4609
VVPpart
p4610
F0.0010869565217391304
ss(VDET
p4611
g3513
tp4612
(dp4613
VNP
p4614
F0.0024502940352842343
sVNP|<DET-NC>
p4615
F0.005555555555555556
ss(VET
p4616
VNP|<PONCT-ET>
p4617
tp4618
(dp4619
VNP
p4620
F7.000840100812098e-05
ss(VVPP
p4621
VNP
p4622
tp4623
(dp4624
VVPpart
p4625
F0.01956521739130435
sg3424
F0.6666666666666666
ss(VVPinf
p4626
VPP
p4627
tp4628
(dp4629
VSsub|<VPinf-PP>
p4630
F1.0
sVVPpart|<VPinf-PP>
p4631
F1.0
sVCOORD|<VPinf-PP>
p4632
F1.0
ss(VPP
p4633
VVPpart|<PP-PONCT>
p4634
tp4635
(dp4636
VVPpart|<PP-PP>
p4637
F0.07142857142857142
ss(VAdP
p4638
VAP|<PONCT-ADJ>
p4639
tp4640
(dp4641
VAP
p4642
F0.0003620564808110065
ss(VCC
p4643
VVN
p4644
tp4645
(dp4646
g3603
F0.006273525721455458
ss(VVN
p4647
VVPinf|<ADV-PONCT>
p4648
tp4649
(dp4650
VVPinf|<VN-ADV>
p4651
F0.05263157894736842
sVVPinf
p4652
F0.0008992805755395684
ss(VPONCT
p4653
VSint|<VN-VPinf>
p4654
tp4655
(dp4656
VSint
p4657
F0.01090909090909091
sg2476
F0.22727272727272727
ss(VVN
p4658
VSsub|<ADV-AP>
p4659
tp4660
(dp4661
VSsub|<VN-ADV>
p4662
F0.03896103896103896
ss(VPONCT
p4663
VVPinf|<ADV-PP>
p4664
tp4665
(dp4666
g2190
F0.4
ss(VVINF
p4667
VVINF
p4668
tp4669
(dp4670
g4025
F1.0
sVVN
p4671
F0.0019968937208786333
ss(VPONCT
p4672
VVPinf|<NP-PP>
p4673
tp4674
(dp4675
VVPinf|<PONCT-NP>
p4676
F0.14285714285714285
ss(VVN
p4677
VSENT|<PONCT-VPinf>
p4678
tp4679
(dp4680
VSENT|<VN-PONCT>
p4681
F0.0125
ss(g3403
VNP|<NC-PP>
p4682
tp4683
(dp4684
VNP|<PP-NC>
p4685
F0.5714285714285714
ss(VCS
p4686
g1210
tp4687
(dp4688
VSsub
p4689
F0.0017301038062283738
ss(VNP
p4690
VNP|<PONCT-PP>
p4691
tp4692
(dp4693
VNP|<NP-PONCT>
p4694
F0.05964912280701754
ss(VNP
p4695
VSENT|<NP-PP>
p4696
tp4697
(dp4698
VSENT
p4699
F0.0008067769261799112
ss(VPP
p4700
VSENT|<Ssub-PONCT>
p4701
tp4702
(dp4703
g1656
F0.8947368421052632
ss(VNP
p4704
VSENT|<COORD-PONCT>
p4705
tp4706
(dp4707
VSENT|<NP-COORD>
p4708
F0.9473684210526315
sVSENT
p4709
F0.0004033884630899556
ss(VPONCT
p4710
VNP|<NC-NC>
p4711
tp4712
(dp4713
VNP
p4714
F0.00014001680201624196
sVNP|<PONCT-NC>
p4715
F0.02127659574468085
ss(VPONCT
p4716
VSrel|<ADV-PP>
p4717
tp4718
(dp4719
VSrel|<PONCT-ADV>
p4720
F0.3333333333333333
ss(VNP
p4721
g4632
tp4722
(dp4723
VCOORD|<NP-VPinf>
p4724
F0.5
ss(g64
VNP|<PRO-PP>
p4725
tp4726
(dp4727
VNP|<P-PRO>
p4728
F0.75
ss(g4313
VSsub|<AdP-PP>
p4729
tp4730
(dp4731
VSsub|<VN-AdP>
p4732
F0.4
ss(VVN
p4733
VSENT|<AP-Ssub>
p4734
tp4735
(dp4736
VSENT
p4737
F0.0024203307785397336
sVSENT|<VN-AP>
p4738
F0.08
ss(VPONCT
p4739
VCOORD|<NP-PP>
p4740
tp4741
(dp4742
g3404
F0.0012547051442910915
ss(VAdP
p4743
VCOORD
p4744
tp4745
(dp4746
VSrel|<AdP-COORD>
p4747
F1.0
ss(VVN
p4748
g2079
tp4749
(dp4750
VSint
p4751
F0.007272727272727273
sVSint|<VN-VPinf>
p4752
F0.02857142857142857
ss(VPP
p4753
VVN|<PONCT-VPP>
p4754
tp4755
(dp4756
VVN|<PP-PONCT>
p4757
F1.0
ss(VPREF
p4758
g1364
tp4759
(dp4760
VAP
p4761
F0.0003620564808110065
ss(VAP
p4762
VSENT|<PONCT-Ssub>
p4763
tp4764
(dp4765
VSENT|<AP-PONCT>
p4766
F0.046153846153846156
ss(g64
VNP|<DET-NC>
p4767
tp4768
(dp4769
VNP
p4770
F0.0008401008120974517
sVNP|<P-DET>
p4771
F1.0
ss(VAdP
p4772
VSENT|<PONCT-PP>
p4773
tp4774
(dp4775
VSENT
p4776
F0.0004033884630899556
ss(VNPP
p4777
g2209
tp4778
(dp4779
VNP
p4780
F0.0008401008120974517
sVNP|<NPP-PONCT>
p4781
F0.7100591715976331
ss(VSrel
p4782
VVPpart
p4783
tp4784
(dp4785
g1933
F1.0
ss(VNP
p4786
VSrel|<PONCT-Ssub>
p4787
tp4788
(dp4789
g2094
F0.0625
sVSrel
p4790
F0.002150537634408602
ss(VCLR
p4791
g232
tp4792
(dp4793
g4475
F0.8448275862068966
sVVN
p4794
F0.019747060128688706
ss(g64
g2980
tp4795
(dp4796
g3710
F0.0170863309352518
ss(VVPP
p4797
VVINF
p4798
tp4799
(dp4800
g761
F1.0
sVVPpart
p4801
F0.0010869565217391304
ss(VVN
p4802
VSint|<ADV-NP>
p4803
tp4804
(dp4805
VSint
p4806
F0.03636363636363636
sVSint|<VN-ADV>
p4807
F0.35294117647058826
ss(VNP
p4808
VVPpart|<PP-COORD>
p4809
tp4810
(dp4811
VVPpart|<NP-PP>
p4812
F0.03125
ss(VADV
p4813
g1129
tp4814
(dp4815
VSrel|<ADV-AdP>
p4816
F1.0
ss(VVPinf
p4817
VCOORD|<PONCT-PP>
p4818
tp4819
(dp4820
VCOORD|<VPinf-PONCT>
p4821
F0.5
ss(VCS
p4822
g4662
tp4823
(dp4824
VSsub
p4825
F0.03633217993079585
ss(VNP
p4826
g1640
tp4827
(dp4828
VSint|<NP-VN>
p4829
F0.4583333333333333
sVSint
p4830
F0.06181818181818182
ss(VSsub
p4831
VSENT|<PONCT-VN>
p4832
tp4833
(dp4834
VSENT
p4835
F0.01008471157724889
sVSENT|<Ssub-PONCT>
p4836
F0.023474178403755867
ss(VPP
p4837
VSsub|<PONCT-Ssub>
p4838
tp4839
(dp4840
VSsub|<PP-PONCT>
p4841
F0.046511627906976744
ss(VADV
p4842
VCOORD|<ADV-VPinf>
p4843
tp4844
(dp4845
g4005
F0.5
ss(VNP
p4846
g3159
tp4847
(dp4848
VVPpart
p4849
F0.004347826086956522
ss(VCOORD
p4850
VSENT|<Ssub-PONCT>
p4851
tp4852
(dp4853
VSENT|<COORD-Ssub>
p4854
F1.0
ss(VVN
p4855
VSrel|<VPinf-Ssub>
p4856
tp4857
(dp4858
VSrel|<VN-VPinf>
p4859
F0.018518518518518517
ss(VNC
p4860
g4372
tp4861
(dp4862
VNP
p4863
F0.0016101932231867824
sVNP|<NC-PP>
p4864
F0.015989036089538604
ss(VNP
p4865
VSENT|<VPpart-PONCT>
p4866
tp4867
(dp4868
VSENT|<NP-VPpart>
p4869
F1.0
ss(VNPP
p4870
VNP|<PP-NPP>
p4871
tp4872
(dp4873
VNP|<NPP-PP>
p4874
F0.014925373134328358
ss(VADJ
p4875
VNPP
p4876
tp4877
(dp4878
VNP
p4879
F7.000840100812098e-05
sVNP|<ADJ-NPP>
p4880
F0.2727272727272727
ss(VPP
p4881
VVPinf|<PONCT-VPinf>
p4882
tp4883
(dp4884
VVPinf|<PP-PONCT>
p4885
F0.05
ss(VVPinf
p4886
VSsub|<PONCT-VN>
p4887
tp4888
(dp4889
g2165
F0.13333333333333333
ss(VNP
p4890
VSENT|<VN-AP>
p4891
tp4892
(dp4893
VSENT|<NP-VN>
p4894
F0.06005221932114883
sVSENT
p4895
F0.015328761597418314
ss(VNC
p4896
VNP|<AP-PP>
p4897
tp4898
(dp4899
VNP
p4900
F0.008330999719966396
sVNP|<NC-AP>
p4901
F0.2458609271523179
ss(VVN
p4902
g2081
tp4903
(dp4904
VSENT|<VN-VPinf>
p4905
F0.875
sVSENT
p4906
F0.018959257765227916
ss(VADJ
p4907
g1338
tp4908
(dp4909
VAP
p4910
F0.0003620564808110065
ss(VPONCT
p4911
VNP|<AP-COORD>
p4912
tp4913
(dp4914
g1322
F0.037037037037037035
ss(VNC
p4915
VNP|<AP-AP>
p4916
tp4917
(dp4918
VNP
p4919
F0.004130495659479138
sVNP|<NC-AP>
p4920
F0.07947019867549669
ss(VPP
p4921
VNP|<COORD-COORD>
p4922
tp4923
(dp4924
g1137
F0.2268041237113402
ss(VPONCT
p4925
VVPinf|<VN-NP>
p4926
tp4927
(dp4928
VVPinf
p4929
F0.0008992805755395684
sVVPinf|<PONCT-VN>
p4930
F0.7142857142857143
ss(VVIMP
p4931
VCLR
p4932
tp4933
(dp4934
VVN
p4935
F0.00044375416019525185
ss(VVN
p4936
VVPinf|<AP-PONCT>
p4937
tp4938
(dp4939
VVPinf|<VN-AP>
p4940
F0.16666666666666666
sVVPinf
p4941
F0.0008992805755395684
ss(VPONCT
p4942
VSENT|<COORD-PONCT>
p4943
tp4944
(dp4945
g1901
F0.9857142857142858
ss(VSrel
p4946
VPP
p4947
tp4948
(dp4949
VNP|<Srel-PP>
p4950
F0.6666666666666666
ss(VNPP
p4951
VNP|<NPP-PP>
p4952
tp4953
(dp4954
VNP
p4955
F0.0006300756090730887
sVNP|<NPP-NPP>
p4956
F0.009433962264150943
ss(VVPP
p4957
g1082
tp4958
(dp4959
VVPpart|<VPP-PP>
p4960
F0.1875
sVVPpart
p4961
F0.007608695652173913
ss(VVN
p4962
VSsub|<Ssub-PP>
p4963
tp4964
(dp4965
VSsub|<VN-Ssub>
p4966
F0.16666666666666666
ss(VSint
p4967
g4556
tp4968
(dp4969
VNP|<Sint-PONCT>
p4970
F0.1111111111111111
ss(VVN
p4971
g201
tp4972
(dp4973
VSENT|<VN-AP>
p4974
F0.02666666666666667
ss(g64
VVN
p4975
tp4976
(dp4977
VVPinf
p4978
F0.04136690647482014
ss(VCS
p4979
g2943
tp4980
(dp4981
VSsub
p4982
F0.005190311418685121
ss(VPP
p4983
VNP|<AP-PP>
p4984
tp4985
(dp4986
VNP|<PP-AP>
p4987
F0.13114754098360656
ss(VPP
p4988
VNP|<PONCT-NP>
p4989
tp4990
(dp4991
VNP|<PP-PONCT>
p4992
F0.3146067415730337
ss(VADV
p4993
VVPpart|<PP-Ssub>
p4994
tp4995
(dp4996
VVPpart|<ADV-PP>
p4997
F0.09090909090909091
ss(VVINF
p4998
VVN|<ADV-VINF>
p4999
tp5000
(dp5001
g1773
F0.6666666666666666
ss(VSsub
p5002
VPP
p5003
tp5004
(dp5005
g4963
F1.0
ss(VVN
p5006
VPONCT
p5007
tp5008
(dp5009
VSint|<VN-PONCT>
p5010
F0.5
sVSrel|<VN-PONCT>
p5011
F0.14285714285714285
sVSENT|<VN-PONCT>
p5012
F0.475
sVSENT
p5013
F0.0004033884630899556
ss(VPONCT
p5014
VSsub|<PP-VPinf>
p5015
tp5016
(dp5017
VSsub|<PONCT-PP>
p5018
F0.03125
ss(VPONCT
p5019
VSENT|<PONCT-PP>
p5020
tp5021
(dp5022
VSENT|<PONCT-PONCT>
p5023
F0.03636363636363636
ss(VNP
p5024
VSrel|<COORD-COORD>
p5025
tp5026
(dp5027
VSrel|<NP-COORD>
p5028
F0.5
ss(VADV
p5029
VCOORD|<PP-PONCT>
p5030
tp5031
(dp5032
VCOORD|<ADV-PP>
p5033
F0.09090909090909091
ss(VPONCT
p5034
VADV
p5035
tp5036
(dp5037
g2449
F0.043478260869565216
sg3311
F0.25
sVAdP|<PONCT-ADV>
p5038
F1.0
sg1177
F1.0
ss(VNC
p5039
VNP|<NC-NPP>
p5040
tp5041
(dp5042
VNP
p5043
F7.000840100812098e-05
sVNP|<NC-NC>
p5044
F0.009950248756218905
ss(VNP
p5045
VSENT|<PONCT-PONCT>
p5046
tp5047
(dp5048
VSENT|<NP-PONCT>
p5049
F0.05491990846681922
ss(VPONCT
p5050
g4303
tp5051
(dp5052
VSsub|<PONCT-PP>
p5053
F0.21875
sVSint|<PONCT-PP>
p5054
F0.375
sg1829
F0.55
sg2596
F0.25
sVCOORD
p5055
F0.026348808030112924
sg4386
F0.6923076923076923
sg3971
F0.6428571428571429
sg8
F0.5
sVNP|<PONCT-PP>
p5056
F0.6261682242990654
sVVPpart|<PONCT-PP>
p5057
F0.7647058823529411
sVAdP|<PONCT-PP>
p5058
F1.0
sVSENT|<PONCT-PP>
p5059
F0.041666666666666664
sVSENT
p5060
F0.0004033884630899556
ss(VNP
p5061
VSENT|<VN-COORD>
p5062
tp5063
(dp5064
VSENT|<NP-VN>
p5065
F0.013054830287206266
sVSENT
p5066
F0.003227107704719645
ss(VNP
p5067
VSsub|<NP-PONCT>
p5068
tp5069
(dp5070
VSsub|<NP-NP>
p5071
F0.6666666666666666
ss(VPP
p5072
VVPinf|<NP-PP>
p5073
tp5074
(dp5075
VVPinf|<PP-NP>
p5076
F0.043478260869565216
ss(VVPinf
p5077
VSENT|<PONCT-PONCT>
p5078
tp5079
(dp5080
VSENT|<VPinf-PONCT>
p5081
F0.06896551724137931
ss(VADV
p5082
VSint|<ADV-PONCT>
p5083
tp5084
(dp5085
VSint
p5086
F0.0036363636363636364
ss(VPP
p5087
VVPinf|<PP-NP>
p5088
tp5089
(dp5090
VVPinf|<PP-PP>
p5091
F0.024390243902439025
ss(VDET
p5092
g4771
tp5093
(dp5094
VNP
p5095
F0.0011201344161299357
sg1227
F1.0
ss(VNPP
p5096
VNP|<COORD-COORD>
p5097
tp5098
(dp5099
g209
F0.00014001680201624196
sVNP|<NPP-COORD>
p5100
F0.16
ss(VPONCT
p5101
g4199
tp5102
(dp5103
g3210
F0.35185185185185186
ss(VADV
p5104
VSsub|<PONCT-COORD>
p5105
tp5106
(dp5107
VSsub|<ADV-PONCT>
p5108
F0.08333333333333333
ss(VADV
p5109
VAdP|<ADV-PP>
p5110
tp5111
(dp5112
VAdP
p5113
F0.01904761904761905
ss(VPREF
p5114
VNP|<NC-AP>
p5115
tp5116
(dp5117
VNP
p5118
F0.0002800336040324839
sVNP|<PREF-NC>
p5119
F0.14285714285714285
ss(VADV
p5120
g1273
tp5121
(dp5122
VNP|<ADV-ADJ>
p5123
F0.16666666666666666
ss(VNP
p5124
VSsub|<PONCT-Sint>
p5125
tp5126
(dp5127
VSsub|<NP-PONCT>
p5128
F0.024390243902439025
ss(VADV
p5129
g1379
tp5130
(dp5131
g4142
F0.2
ss(VVPinf
p5132
VSsub|<PONCT-VPinf>
p5133
tp5134
(dp5135
VSsub|<VPinf-PONCT>
p5136
F0.06666666666666667
ss(VAP
p5137
VNP|<PP-Srel>
p5138
tp5139
(dp5140
VNP|<AP-PP>
p5141
F0.006369426751592357
ss(VVN
p5142
g4720
tp5143
(dp5144
VSrel|<VN-PONCT>
p5145
F0.2857142857142857
ss(VVPP
p5146
g2553
tp5147
(dp5148
VVPpart
p5149
F0.0010869565217391304
ss(VVN
p5150
g2428
tp5151
(dp5152
VVPinf
p5153
F0.0008992805755395684
ss(VVN
p5154
g782
tp5155
(dp5156
VCOORD|<VN-PP>
p5157
F0.03333333333333333
ss(VPP
p5158
VSENT|<COORD-PONCT>
p5159
tp5160
(dp5161
VSENT|<PP-COORD>
p5162
F0.8627450980392157
ss(VVN
p5163
VVPpart|<NP-VPinf>
p5164
tp5165
(dp5166
VVPpart
p5167
F0.002173913043478261
ss(VPP
p5168
VNP|<COORD-PONCT>
p5169
tp5170
(dp5171
VNP|<PP-COORD>
p5172
F0.07216494845360824
ss(VCS
p5173
g2168
tp5174
(dp5175
VSsub
p5176
F0.0017301038062283738
ss(VVN
p5177
g3386
tp5178
(dp5179
VSsub|<VN-NP>
p5180
F0.0196078431372549
ss(VADV
p5181
VSENT|<ADV-ADV>
p5182
tp5183
(dp5184
VSENT|<ADV-ADV>
p5185
F0.07142857142857142
ss(VPONCT
p5186
VVPpart|<NP-PP>
p5187
tp5188
(dp5189
VVPpart|<PONCT-NP>
p5190
F0.1
ss(VVN
p5191
g4527
tp5192
(dp5193
VSint
p5194
F0.0036363636363636364
ss(VNC
p5195
VNP|<NC-PP>
p5196
tp5197
(dp5198
VNP
p5199
F0.0003500420050406049
sVNP|<NC-NC>
p5200
F0.1044776119402985
ss(VNP
p5201
VSint|<PONCT-PP>
p5202
tp5203
(dp5204
VSint|<NP-PONCT>
p5205
F0.15384615384615385
ss(VVIMP
p5206
VCLO
p5207
tp5208
(dp5209
VVN
p5210
F0.0008875083203905037
ss(VNC
p5211
VNP|<AP-VPinf>
p5212
tp5213
(dp5214
VNP
p5215
F7.000840100812098e-05
sVNP|<NC-AP>
p5216
F0.0016556291390728477
ss(VNC
p5217
VNP|<NC-AP>
p5218
tp5219
(dp5220
VNP
p5221
F7.000840100812098e-05
ss(g2965
VVPinf|<PP-PONCT>
p5222
tp5223
(dp5224
g2730
F0.6666666666666666
ss(VVPpart
p5225
VVPpart
p5226
tp5227
(dp5228
VNP|<VPpart-VPpart>
p5229
F1.0
ss(VVN
p5230
VVPinf|<PP-NP>
p5231
tp5232
(dp5233
VVPinf
p5234
F0.007194244604316547
sVVPinf|<VN-PP>
p5235
F0.12612612612612611
ss(VVN
p5236
VSsub|<PP-PP>
p5237
tp5238
(dp5239
VSsub|<VN-PP>
p5240
F0.08737864077669903
ss(VVN
p5241
VVPpart|<PP-COORD>
p5242
tp5243
(dp5244
VVPpart
p5245
F0.003260869565217391
ss(VVN
p5246
g3852
tp5247
(dp5248
VVPinf
p5249
F0.05755395683453238
sVVPinf|<VN-NP>
p5250
F0.17804154302670624
ss(VVN
p5251
VSENT|<PP-Srel>
p5252
tp5253
(dp5254
VSENT
p5255
F0.0004033884630899556
sVSENT|<VN-PP>
p5256
F0.002717391304347826
ss(VVPP
p5257
VADV
p5258
tp5259
(dp5260
VVPpart
p5261
F0.003260869565217391
ss(VVPpart
p5262
g3854
tp5263
(dp5264
g4170
F1.0
ss(VNC
p5265
VNP|<NP-NPP>
p5266
tp5267
(dp5268
VNP|<NC-NP>
p5269
F0.03333333333333333
ss(VNC
p5270
VAP|<PONCT-ADJ>
p5271
tp5272
(dp5273
VAP
p5274
F0.0003620564808110065
ss(VADV
p5275
VSint|<ADV-VPinf>
p5276
tp5277
(dp5278
VSint|<ADV-ADV>
p5279
F1.0
ss(VNPP
p5280
g4625
tp5281
(dp5282
VNP
p5283
F0.00021002520302436292
sg489
F0.8333333333333334
ss(VPP
p5284
VSint|<VN-NP>
p5285
tp5286
(dp5287
g2104
F0.0036363636363636364
ss(VNP
p5288
VCOORD|<PP-PONCT>
p5289
tp5290
(dp5291
VCOORD|<NP-PP>
p5292
F0.1
ss(VVN
p5293
g793
tp5294
(dp5295
VSint
p5296
F0.0036363636363636364
sVSint|<VN-AdP>
p5297
F0.3333333333333333
ss(VPP
p5298
VSsub|<PONCT-PP>
p5299
tp5300
(dp5301
VSsub|<PP-PONCT>
p5302
F0.11627906976744186
ss(VADV
p5303
VNP|<ADJ-ADJ>
p5304
tp5305
(dp5306
VNP|<ADV-ADJ>
p5307
F0.08333333333333333
ss(VSint
p5308
VADJ
p5309
tp5310
(dp5311
VAP
p5312
F0.0003620564808110065
ss(VAP
p5313
VNP|<AP-PONCT>
p5314
tp5315
(dp5316
VNP|<AP-AP>
p5317
F0.14634146341463414
ss(VNP
p5318
VSrel|<PP-PONCT>
p5319
tp5320
(dp5321
VSrel|<NP-PP>
p5322
F0.125
ss(VNP
p5323
VVPinf|<PP-COORD>
p5324
tp5325
(dp5326
VVPinf|<NP-PP>
p5327
F0.03007518796992481
ss(VET
p5328
VPONCT
p5329
tp5330
(dp5331
VNP|<ET-PONCT>
p5332
F0.6666666666666666
ss(VADV
p5333
VVN|<VS-VPP>
p5334
tp5335
(dp5336
g3869
F1.0
ss(VVPpart
p5337
VCOORD
p5338
tp5339
(dp5340
VPP|<VPpart-COORD>
p5341
F1.0
sg717
F1.0
sg3979
F0.8
ss(VADV
p5342
VSENT|<PONCT-VPpart>
p5343
tp5344
(dp5345
VSENT|<ADV-PONCT>
p5346
F0.03571428571428571
ss(VPP
p5347
VVPinf|<NP-VPinf>
p5348
tp5349
(dp5350
VVPinf|<PP-NP>
p5351
F0.08695652173913043
ss(VVPinf
p5352
VSENT|<VPpart-PONCT>
p5353
tp5354
(dp5355
VSENT|<VPinf-VPpart>
p5356
F1.0
ss(VPONCT
p5357
VSsub|<NP-NP>
p5358
tp5359
(dp5360
VSsub|<PONCT-NP>
p5361
F0.02702702702702703
ss(VVN
p5362
VVPinf|<PP-PP>
p5363
tp5364
(dp5365
VVPinf
p5366
F0.009892086330935251
sVVPinf|<VN-PP>
p5367
F0.09009009009009009
ss(VADV
p5368
VSENT|<NP-VPinf>
p5369
tp5370
(dp5371
VSENT|<ADV-NP>
p5372
F0.0660377358490566
ss(VPP
p5373
VSint|<NP-VN>
p5374
tp5375
(dp5376
VSint
p5377
F0.014545454545454545
ss(VNP
p5378
g64
tp5379
(dp5380
VPP
p5381
F0.00012751849018107625
ss(VADJ
p5382
g2824
tp5383
(dp5384
VAP
p5385
F0.002896451846488052
sVAP|<ADJ-PONCT>
p5386
F0.42105263157894735
ss(VVN
p5387
g3188
tp5388
(dp5389
VSENT|<VN-AP>
p5390
F0.013333333333333334
sVSENT
p5391
F0.0004033884630899556
ss(VADV
p5392
VVPP
p5393
tp5394
(dp5395
g2555
F0.8852459016393442
sVVPpart|<ADV-VPP>
p5396
F1.0
sg5225
F0.01956521739130435
ss(VCOORD
p5397
VSENT|<PP-PONCT>
p5398
tp5399
(dp5400
VSENT|<COORD-PP>
p5401
F1.0
ss(VNP
p5402
VSint|<COORD-COORD>
p5403
tp5404
(dp5405
g2328
F0.25
ss(VSsub
p5406
VSENT|<VN-Ssub>
p5407
tp5408
(dp5409
VSENT
p5410
F0.0004033884630899556
ss(VAdP
p5411
g3632
tp5412
(dp5413
VPP
p5414
F0.00012751849018107625
ss(VPONCT
p5415
VSsub|<VN-PONCT>
p5416
tp5417
(dp5418
g3539
F0.06451612903225806
ss(VADV
p5419
VAdP|<PONCT-Srel>
p5420
tp5421
(dp5422
g666
F0.009523809523809525
ss(VPONCT
p5423
VSsub|<VN-VPinf>
p5424
tp5425
(dp5426
g4166
F0.1935483870967742
ss(VPONCT
p5427
VSsub
p5428
tp5429
(dp5430
VCOORD|<PONCT-Ssub>
p5431
F1.0
sVSint
p5432
F0.0036363636363636364
sg610
F0.8
sVVPinf|<PONCT-Ssub>
p5433
F0.75
sVNP|<PONCT-Ssub>
p5434
F0.5
sVVPpart|<PONCT-Ssub>
p5435
F1.0
sVSint|<PONCT-Ssub>
p5436
F0.6666666666666666
sg4787
F0.8333333333333334
sVSENT|<PONCT-Ssub>
p5437
F0.020833333333333332
sVSENT
p5438
F0.0016135538523598225
ss(VADV
p5439
VCOORD|<PONCT-PP>
p5440
tp5441
(dp5442
VCOORD|<ADV-PONCT>
p5443
F0.25
ss(VVN
p5444
VSint|<ADV-Ssub>
p5445
tp5446
(dp5447
VSint
p5448
F0.0036363636363636364
ss(VPONCT
p5449
VSENT|<VPinf-PONCT>
p5450
tp5451
(dp5452
g1546
F0.9622641509433962
sVSENT
p5453
F0.0008067769261799112
ss(VNP
p5454
VSENT|<ADV-PONCT>
p5455
tp5456
(dp5457
g910
F0.5
ss(VVN
p5458
VVPpart|<PP-PONCT>
p5459
tp5460
(dp5461
VVPpart
p5462
F0.002173913043478261
ss(VPONCT
p5463
VNP|<DET-CC>
p5464
tp5465
(dp5466
VNP|<PONCT-DET>
p5467
F0.4
ss(VPP
p5468
VVPinf|<COORD-COORD>
p5469
tp5470
(dp5471
VVPinf|<PP-COORD>
p5472
F0.058823529411764705
ss(VPONCT
p5473
VSENT|<NP-NP>
p5474
tp5475
(dp5476
VSENT|<PONCT-NP>
p5477
F0.009186351706036745
sVSENT
p5478
F0.0012101653892698668
ss(VNP
p5479
VVPinf|<PONCT-COORD>
p5480
tp5481
(dp5482
VVPinf|<NP-PONCT>
p5483
F0.02857142857142857
ss(VPP
p5484
VVN|<ADV-VPP>
p5485
tp5486
(dp5487
VVN|<PP-ADV>
p5488
F1.0
ss(VPONCT
p5489
g4676
tp5490
(dp5491
VVPinf|<PONCT-PONCT>
p5492
F1.0
ss(VPONCT
p5493
g432
tp5494
(dp5495
VNP|<PONCT-COORD>
p5496
F0.014492753623188406
ss(VVN
p5497
g2814
tp5498
(dp5499
VSENT|<VN-ADV>
p5500
F0.0594059405940594
sVSENT
p5501
F0.0004033884630899556
ss(VDET
p5502
VPP
p5503
tp5504
(dp5505
VNP
p5506
F7.000840100812098e-05
ss(VCC
p5507
VCOORD|<NP-VPpart>
p5508
tp5509
(dp5510
VCOORD
p5511
F0.0006273525721455458
ss(VVPP
p5512
g4631
tp5513
(dp5514
VVPpart
p5515
F0.0010869565217391304
ss(VNPP
p5516
VET
p5517
tp5518
(dp5519
VNP
p5520
F7.000840100812098e-05
sVNP|<NPP-ET>
p5521
F0.16666666666666666
ss(VAP
p5522
g36
tp5523
(dp5524
g510
F0.3333333333333333
ss(VVPinf
p5525
VSENT|<PONCT-Srel>
p5526
tp5527
(dp5528
VSENT|<VPinf-PONCT>
p5529
F0.0022988505747126436
ss(VCLR
p5530
VVN|<VINF-VPP>
p5531
tp5532
(dp5533
VVN
p5534
F0.00022187708009762592
ss(VVINF
p5535
VAP
p5536
tp5537
(dp5538
VVN
p5539
F0.00022187708009762592
ss(VPP
p5540
VVPpart|<PONCT-Sint>
p5541
tp5542
(dp5543
VVPpart|<PP-PONCT>
p5544
F0.045454545454545456
ss(VVN
p5545
g4528
tp5546
(dp5547
VVPinf
p5548
F0.0035971223021582736
sVVPinf|<VN-PP>
p5549
F0.018018018018018018
ss(VADJ
p5550
VADJ
p5551
tp5552
(dp5553
VNP|<ADJ-ADJ>
p5554
F0.2
ss(VPP
p5555
VSint|<COORD-COORD>
p5556
tp5557
(dp5558
VSint|<PP-COORD>
p5559
F0.4
ss(VPP
p5560
VPP
p5561
tp5562
(dp5563
VSENT|<PP-PP>
p5564
F0.007874015748031496
sg3544
F0.8083832335329342
sVSsub|<PP-PP>
p5565
F0.7857142857142857
sg5363
F0.8292682926829268
sVVPpart|<PP-PP>
p5566
F0.8392857142857143
sg4294
F0.4444444444444444
sVAP|<PP-PP>
p5567
F0.6666666666666666
sVCOORD|<PP-PP>
p5568
F0.9090909090909091
sg2055
F0.9
ss(VPONCT
p5569
VNP|<AP-Srel>
p5570
tp5571
(dp5572
VNP|<PONCT-AP>
p5573
F0.018518518518518517
ss(VPONCT
p5574
VSrel|<Ssub-PONCT>
p5575
tp5576
(dp5577
VSrel|<PONCT-Ssub>
p5578
F0.16666666666666666
ss(VVN
p5579
g5162
tp5580
(dp5581
VSENT
p5582
F0.0012101653892698668
sg2705
F0.06521739130434782
ss(VVN
p5583
VSint|<NP-Srel>
p5584
tp5585
(dp5586
VSint
p5587
F0.0036363636363636364
ss(VPP
p5588
VAP|<PP-COORD>
p5589
tp5590
(dp5591
VAP|<PP-PP>
p5592
F0.3333333333333333
ss(VPP
p5593
g5229
tp5594
(dp5595
VNP|<PP-VPpart>
p5596
F0.01282051282051282
ss(VVN
p5597
VSENT|<AdP-Ssub>
p5598
tp5599
(dp5600
VSENT
p5601
F0.0008067769261799112
ss(VADV
p5602
g3614
tp5603
(dp5604
VSENT|<ADV-NP>
p5605
F0.009433962264150943
ss(g64
VSsub
p5606
tp5607
(dp5608
VPP
p5609
F0.00012751849018107625
ss(VNC
p5610
g3269
tp5611
(dp5612
VNP|<NC-PP>
p5613
F0.005025125628140704
sVNP
p5614
F0.0003500420050406049
ss(VVPpart
p5615
VNP|<COORD-COORD>
p5616
tp5617
(dp5618
VNP|<VPpart-COORD>
p5619
F0.2
ss(VNPP
p5620
VNP|<PONCT-COORD>
p5621
tp5622
(dp5623
VNP
p5624
F7.000840100812098e-05
sVNP|<NPP-PONCT>
p5625
F0.011834319526627219
ss(g64
VP+PRO
p5626
tp5627
(dp5628
VPP
p5629
F0.00012751849018107625
ss(VVPpart
p5630
VSENT|<PONCT-PP>
p5631
tp5632
(dp5633
VSENT|<VPpart-PONCT>
p5634
F0.022727272727272728
ss(VPREF
p5635
VNC
p5636
tp5637
(dp5638
VNP
p5639
F0.0003500420050406049
sVNP|<PREF-NC>
p5640
F0.2857142857142857
ss(VNP
p5641
VSrel|<VN-VPinf>
p5642
tp5643
(dp5644
VSrel|<NP-VN>
p5645
F0.11538461538461539
sVSrel
p5646
F0.08602150537634409
ss(VAdP
p5647
VCOORD|<PONCT-NP>
p5648
tp5649
(dp5650
g3391
F1.0
ss(VNC
p5651
g4352
tp5652
(dp5653
VNP
p5654
F7.000840100812098e-05
ss(VNP
p5655
VSENT|<Sint-PONCT>
p5656
tp5657
(dp5658
VSENT|<NP-Sint>
p5659
F1.0
ss(VVINF
p5660
VPONCT
p5661
tp5662
(dp5663
VVN|<VINF-PONCT>
p5664
F1.0
ss(VPONCT
p5665
g2474
tp5666
(dp5667
VNP|<PONCT-Srel>
p5668
F0.02
ss(VPP
p5669
VSENT|<PP-PP>
p5670
tp5671
(dp5672
VSENT|<PP-PP>
p5673
F0.10236220472440945
ss(VADV
p5674
VSsub|<NP-PP>
p5675
tp5676
(dp5677
VSsub|<ADV-NP>
p5678
F0.17647058823529413
ss(VVN
p5679
g5279
tp5680
(dp5681
VSint
p5682
F0.0036363636363636364
sVSint|<VN-ADV>
p5683
F0.058823529411764705
ss(VCOORD
p5684
VSint|<COORD-COORD>
p5685
tp5686
(dp5687
g5403
F0.2
ss(VDET
p5688
VNP|<NC-AdP>
p5689
tp5690
(dp5691
VNP
p5692
F0.00014001680201624196
ss(VAdP
p5693
VAP|<ADJ-Ssub>
p5694
tp5695
(dp5696
VAP
p5697
F0.0003620564808110065
ss(VCC
p5698
g2158
tp5699
(dp5700
VCOORD
p5701
F0.003136762860727729
ss(VVN
p5702
g4869
tp5703
(dp5704
VSENT|<VN-NP>
p5705
F0.005263157894736842
ss(VPONCT
p5706
VNP|<NPP-ET>
p5707
tp5708
(dp5709
VNP
p5710
F0.00014001680201624196
ss(VAdP
p5711
VVPinf|<NP-PP>
p5712
tp5713
(dp5714
VVPinf|<AdP-NP>
p5715
F0.5
ss(VCS
p5716
VSsub|<PONCT-PP>
p5717
tp5718
(dp5719
VSsub
p5720
F0.012110726643598616
ss(VPONCT
p5721
VSint|<NP-PONCT>
p5722
tp5723
(dp5724
g4559
F0.22727272727272727
sVSint
p5725
F0.0036363636363636364
ss(VCLS
p5726
VVN|<CLR-CLO>
p5727
tp5728
(dp5729
VVN
p5730
F0.00022187708009762592
ss(VNP
p5731
VSrel|<VN-ADV>
p5732
tp5733
(dp5734
VSrel|<NP-VN>
p5735
F0.07692307692307693
sVSrel
p5736
F0.1010752688172043
ss(g232
g5488
tp5737
(dp5738
VVN
p5739
F0.00022187708009762592
ss(VDET
p5740
g2269
tp5741
(dp5742
VNP
p5743
F0.018342201064127695
sVNP|<DET-NC>
p5744
F0.03333333333333333
ss(VDET
p5745
VNP|<PREF-ADJ>
p5746
tp5747
(dp5748
VNP
p5749
F7.000840100812098e-05
ss(VPONCT
p5750
VNP|<ADV-PP>
p5751
tp5752
(dp5753
VNP|<PONCT-ADV>
p5754
F0.17391304347826086
ss(VVN
p5755
g3587
tp5756
(dp5757
VSint
p5758
F0.0036363636363636364
sVSint|<VN-AP>
p5759
F0.09090909090909091
ss(VPONCT
p5760
g5012
tp5761
(dp5762
VSENT|<PONCT-VN>
p5763
F0.05
sVSENT
p5764
F0.0004033884630899556
ss(VVN
p5765
g5356
tp5766
(dp5767
VSENT|<VN-VPinf>
p5768
F0.004629629629629629
ss(VPP
p5769
g2042
tp5770
(dp5771
g5222
F0.025
ss(VADV
p5772
VAdP
p5773
tp5774
(dp5775
VSint|<ADV-AdP>
p5776
F1.0
sVAdP
p5777
F0.009523809523809525
ss(VPP
p5778
g2579
tp5779
(dp5780
VNP|<PP-PONCT>
p5781
F0.00749063670411985
ss(VPP
p5782
g2382
tp5783
(dp5784
VSint|<PP-PONCT>
p5785
F0.038461538461538464
ss(VCC
p5786
g400
tp5787
(dp5788
VCOORD
p5789
F0.0006273525721455458
ss(VNP
p5790
g5396
tp5791
(dp5792
VVPpart
p5793
F0.0010869565217391304
ss(VADV
p5794
VVPinf|<VN-Ssub>
p5795
tp5796
(dp5797
VVPinf
p5798
F0.0008992805755395684
ss(VNPP
p5799
VNP|<COORD-PONCT>
p5800
tp5801
(dp5802
VNP
p5803
F7.000840100812098e-05
sVNP|<NPP-COORD>
p5804
F0.04
ss(VDET
p5805
VNP|<NC-NC>
p5806
tp5807
(dp5808
VNP
p5809
F0.004480537664519743
sVNP|<DET-NC>
p5810
F0.005555555555555556
ss(VVPinf
p5811
VSsub|<PONCT-Ssub>
p5812
tp5813
(dp5814
VSsub|<VPinf-PONCT>
p5815
F0.06666666666666667
ss(VVINF
p5816
VVN|<AdP-VPP>
p5817
tp5818
(dp5819
VVN
p5820
F0.00022187708009762592
ss(VPP
p5821
VVPinf|<PONCT-Sint>
p5822
tp5823
(dp5824
VVPinf|<PP-PONCT>
p5825
F0.05
ss(VVN
p5826
g420
tp5827
(dp5828
g1071
F0.2857142857142857
ss(VVN
p5829
g2464
tp5830
(dp5831
VSENT
p5832
F0.0016135538523598225
sVSENT|<VN-PP>
p5833
F0.0625
ss(VNC
p5834
VNP|<AP-VPpart>
p5835
tp5836
(dp5837
VNP
p5838
F0.0013301596191542986
sVNP|<NC-AP>
p5839
F0.039735099337748346
ss(VNP
p5840
g4708
tp5841
(dp5842
g4536
F0.041666666666666664
sVSENT
p5843
F0.0004033884630899556
ss(VVN
p5844
g1494
tp5845
(dp5846
VCOORD|<VN-AP>
p5847
F0.14285714285714285
ss(VNPP
p5848
VNP|<NP-NP>
p5849
tp5850
(dp5851
VNP
p5852
F0.0003500420050406049
ss(VSint
p5853
VNP|<PONCT-DET>
p5854
tp5855
(dp5856
VNP|<Sint-PONCT>
p5857
F0.1111111111111111
ss(VSint
p5858
VCOORD|<PONCT-VN>
p5859
tp5860
(dp5861
VCOORD|<Sint-PONCT>
p5862
F0.25
ss(VNC
p5863
g214
tp5864
(dp5865
VNP
p5866
F0.00014001680201624196
sVNP|<NC-AP>
p5867
F0.0041390728476821195
ss(VAP
p5868
VNP|<PONCT-Sint>
p5869
tp5870
(dp5871
VNP|<AP-PONCT>
p5872
F0.018867924528301886
ss(VNP
p5873
g4732
tp5874
(dp5875
VSsub|<NP-VN>
p5876
F0.014545454545454545
ss(VADJ
p5877
VNP|<NPP-NPP>
p5878
tp5879
(dp5880
VNP|<ADJ-NPP>
p5881
F0.18181818181818182
ss(VPONCT
p5882
VSENT|<VN-COORD>
p5883
tp5884
(dp5885
VSENT|<PONCT-VN>
p5886
F0.007142857142857143
ss(VSsub
p5887
VSrel|<PONCT-VPinf>
p5888
tp5889
(dp5890
g836
F0.5
ss(VNC
p5891
g4582
tp5892
(dp5893
VNP|<NC-Srel>
p5894
F0.040268456375838924
ss(VADV
p5895
g5386
tp5896
(dp5897
VAP|<ADV-ADJ>
p5898
F0.25
sVAP
p5899
F0.0032585083272990588
ss(VVN
p5900
VNP
p5901
tp5902
(dp5903
g4587
F0.6405228758169934
sVSint
p5904
F0.08
sg376
F0.6739130434782609
sg5226
F0.13260869565217392
sVSrel|<VN-NP>
p5905
F0.7424242424242424
sVVPpart|<VN-NP>
p5906
F0.5
sg2170
F0.5555555555555556
sVVPinf
p5907
F0.1196043165467626
sVVPinf|<VN-NP>
p5908
F0.6468842729970327
sVSENT|<VN-NP>
p5909
F0.018421052631578946
sVNP|<VN-NP>
p5910
F1.0
ss(VSint
p5911
VSENT|<PONCT-Sint>
p5912
tp5913
(dp5914
VSENT|<Sint-PONCT>
p5915
F0.10843373493975904
ss(VVN
p5916
g2614
tp5917
(dp5918
VSsub|<VN-VPinf>
p5919
F0.01282051282051282
ss(VAP
p5920
VAP
p5921
tp5922
(dp5923
g4916
F0.6707317073170732
ss(VNP
p5924
VVPinf|<NP-PONCT>
p5925
tp5926
(dp5927
VVPinf|<NP-NP>
p5928
F0.1
ss(VAP
p5929
VSENT|<PP-COORD>
p5930
tp5931
(dp5932
VSENT|<AP-PP>
p5933
F0.14285714285714285
ss(VADV
p5934
VSint|<NP-PONCT>
p5935
tp5936
(dp5937
VSint|<ADV-NP>
p5938
F0.0625
ss(VNP
p5939
VCOORD|<PONCT-NP>
p5940
tp5941
(dp5942
VCOORD|<NP-PONCT>
p5943
F0.09090909090909091
ss(VDET
p5944
VNP|<NPP-COORD>
p5945
tp5946
(dp5947
VNP
p5948
F0.0007700924110893308
sVNP|<DET-NPP>
p5949
F0.13333333333333333
ss(VVN
p5950
VVPinf|<COORD-PP>
p5951
tp5952
(dp5953
VVPinf
p5954
F0.0008992805755395684
ss(VNP
p5955
g5261
tp5956
(dp5957
g3286
F1.0
sg5508
F1.0
sg80
F1.0
sVPP|<NP-VPpart>
p5958
F1.0
ss(VDET
p5959
VNP|<NC-ADV>
p5960
tp5961
(dp5962
VNP
p5963
F0.0014001680201624195
ss(VPRO
p5964
VNP|<PP-Srel>
p5965
tp5966
(dp5967
VNP
p5968
F7.000840100812098e-05
sVNP|<PRO-PP>
p5969
F0.038461538461538464
ss(VCOORD
p5970
VVPpart|<PONCT-COORD>
p5971
tp5972
(dp5973
VVPpart|<COORD-PONCT>
p5974
F0.5
ss(VPP
p5975
VSENT|<Srel-PONCT>
p5976
tp5977
(dp5978
g5252
F1.0
ss(VADV
p5979
VAdP|<PP-PONCT>
p5980
tp5981
(dp5982
g4772
F0.009523809523809525
ss(VPONCT
p5983
g4362
tp5984
(dp5985
g2323
F0.5
ss(VSint
p5986
VSENT|<PONCT-PONCT>
p5987
tp5988
(dp5989
VSENT|<Sint-PONCT>
p5990
F0.12048192771084337
ss(VADV
p5991
VVPinf|<VN-ADV>
p5992
tp5993
(dp5994
VVPinf
p5995
F0.0008992805755395684
ss(VADV
p5996
VSENT|<VPpart-PONCT>
p5997
tp5998
(dp5999
VSENT|<ADV-VPpart>
p6000
F1.0
ss(VNP
p6001
g3903
tp6002
(dp6003
VSint
p6004
F0.0036363636363636364
ss(VPP
p6005
g5058
tp6006
(dp6007
g5980
F1.0
ss(VCC
p6008
VCOORD|<PONCT-PP>
p6009
tp6010
(dp6011
VCOORD
p6012
F0.002509410288582183
ss(VADJ
p6013
VNP|<NC-VPinf>
p6014
tp6015
(dp6016
VNP|<ADJ-NC>
p6017
F0.0019723865877712033
ss(VNC
p6018
VNP|<ADJ-NC>
p6019
tp6020
(dp6021
VNP
p6022
F0.0002800336040324839
sVNP|<NC-ADJ>
p6023
F0.42857142857142855
ss(VNC
p6024
VNP|<NP-PONCT>
p6025
tp6026
(dp6027
VNP
p6028
F7.000840100812098e-05
sVNP|<NC-NP>
p6029
F0.03333333333333333
ss(VPP
p6030
g1597
tp6031
(dp6032
g1630
F0.9387755102040817
ss(VNP
p6033
VCOORD|<NP-PONCT>
p6034
tp6035
(dp6036
VCOORD|<NP-NP>
p6037
F0.25
ss(VADV
p6038
g3580
tp6039
(dp6040
g4648
F0.2
ss(VDET
p6041
VNP|<COORD-NC>
p6042
tp6043
(dp6044
VNP
p6045
F0.00014001680201624196
ss(VVN
p6046
VSint|<AP-VPinf>
p6047
tp6048
(dp6049
VSint
p6050
F0.0036363636363636364
ss(VPP
p6051
VSint|<VN-VPinf>
p6052
tp6053
(dp6054
VSint
p6055
F0.0036363636363636364
ss(VADV
p6056
VNP|<P-ADJ>
p6057
tp6058
(dp6059
VNP
p6060
F7.000840100812098e-05
ss(VCC
p6061
VAP
p6062
tp6063
(dp6064
g3301
F1.0
sVCOORD
p6065
F0.05144291091593475
ss(VCOORD
p6066
VPP|<PONCT-COORD>
p6067
tp6068
(dp6069
VPP|<COORD-PONCT>
p6070
F0.625
ss(VADVWH
p6071
VSENT|<VN-NP>
p6072
tp6073
(dp6074
VSENT
p6075
F0.0004033884630899556
ss(VNP
p6076
VVPinf|<PONCT-VPinf>
p6077
tp6078
(dp6079
VVPinf|<NP-PONCT>
p6080
F0.02857142857142857
ss(VVN
p6081
g5559
tp6082
(dp6083
VSint
p6084
F0.0036363636363636364
sVSint|<VN-PP>
p6085
F0.08571428571428572
ss(VVN
p6086
g5915
tp6087
(dp6088
VSENT
p6089
F0.0004033884630899556
ss(VSsub
p6090
VVPinf
p6091
tp6092
(dp6093
VVPinf|<Ssub-VPinf>
p6094
F1.0
ss(VNPP
p6095
g873
tp6096
(dp6097
VNP|<NPP-PP>
p6098
F0.014925373134328358
ss(VADV
p6099
VSENT|<AdP-PP>
p6100
tp6101
(dp6102
VSENT|<ADV-AdP>
p6103
F0.6666666666666666
ss(VCS
p6104
g5071
tp6105
(dp6106
VSsub
p6107
F0.0017301038062283738
ss(VPP
p6108
VSrel|<PONCT-VN>
p6109
tp6110
(dp6111
VSrel|<PP-PONCT>
p6112
F0.15789473684210525
ss(VPRO
p6113
VVN
p6114
tp6115
(dp6116
VNP
p6117
F7.000840100812098e-05
ss(VAP
p6118
VNP|<AP-VPpart>
p6119
tp6120
(dp6121
VNP|<AP-AP>
p6122
F0.006097560975609756
ss(VNC
p6123
g5100
tp6124
(dp6125
VNP
p6126
F0.00042005040604872583
sVNP|<NC-NPP>
p6127
F0.013513513513513514
ss(g64
g139
tp6128
(dp6129
VPP
p6130
F0.001530221882172915
ss(VNP
p6131
VSENT|<VN-AdP>
p6132
tp6133
(dp6134
VSENT|<NP-VN>
p6135
F0.005221932114882507
sVSENT
p6136
F0.002016942315449778
ss(VVN
p6137
g3856
tp6138
(dp6139
VVPpart|<VN-NP>
p6140
F0.5
sVVPpart
p6141
F0.02282608695652174
ss(VDET
p6142
g140
tp6143
(dp6144
VNP
p6145
F0.0008401008120974517
ss(VPONCT
p6146
VSENT|<VPpart-PONCT>
p6147
tp6148
(dp6149
VSENT|<PONCT-VPpart>
p6150
F0.9411764705882353
sVSENT
p6151
F0.0004033884630899556
ss(VCLR
p6152
VVN|<CLO-VINF>
p6153
tp6154
(dp6155
VVN
p6156
F0.00022187708009762592
ss(VVN
p6157
VSsub|<ADV-PP>
p6158
tp6159
(dp6160
VSsub|<VN-ADV>
p6161
F0.18181818181818182
ss(VNC
p6162
VNP|<PP-NC>
p6163
tp6164
(dp6165
VNP
p6166
F7.000840100812098e-05
sVNP|<NC-PP>
p6167
F0.0009136592051164915
ss(VVN
p6168
g5776
tp6169
(dp6170
VSint
p6171
F0.0036363636363636364
ss(VNP
p6172
g3249
tp6173
(dp6174
VNP|<NP-PONCT>
p6175
F0.017543859649122806
ss(VADV
p6176
VNP|<PP-PONCT>
p6177
tp6178
(dp6179
VNP|<ADV-PP>
p6180
F0.07692307692307693
ss(VVN
p6181
VSENT|<PONCT-NP>
p6182
tp6183
(dp6184
VSENT|<VN-PONCT>
p6185
F0.1
sVSENT
p6186
F0.0016135538523598225
ss(VVPP
p6187
VSsub
p6188
tp6189
(dp6190
VVPpart
p6191
F0.003260869565217391
ss(VPP
p6192
VVPpart|<VPinf-PP>
p6193
tp6194
(dp6195
VVPpart|<PP-VPinf>
p6196
F0.25
ss(VPONCT
p6197
g1220
tp6198
(dp6199
VPP|<PONCT-NP>
p6200
F0.625
ss(VADV
p6201
VVPinf|<NP-PONCT>
p6202
tp6203
(dp6204
VVPinf|<ADV-NP>
p6205
F0.045454545454545456
ss(VVPinf
p6206
VSENT|<ADV-PP>
p6207
tp6208
(dp6209
g2292
F1.0
ss(VSrel
p6210
VNP|<PONCT-VPinf>
p6211
tp6212
(dp6213
VNP|<Srel-PONCT>
p6214
F0.058823529411764705
ss(VADV
p6215
VPONCT
p6216
tp6217
(dp6218
VSENT|<ADV-PONCT>
p6219
F0.5
sVSENT
p6220
F0.0004033884630899556
sVSsub|<ADV-PONCT>
p6221
F0.08333333333333333
ss(VNP
p6222
VSENT|<PONCT-VPinf>
p6223
tp6224
(dp6225
VSENT|<NP-PONCT>
p6226
F0.009153318077803204
sVSENT
p6227
F0.0004033884630899556
ss(VNP
p6228
VSint|<PONCT-COORD>
p6229
tp6230
(dp6231
g5935
F0.15384615384615385
ss(VADV
p6232
VSENT|<NP-NP>
p6233
tp6234
(dp6235
VSENT|<ADV-NP>
p6236
F0.009433962264150943
ss(VAP
p6237
VNP|<NC-VPpart>
p6238
tp6239
(dp6240
VNP|<AP-NC>
p6241
F0.045454545454545456
ss(VADV
p6242
g883
tp6243
(dp6244
g3189
F0.006920415224913495
ss(VPONCT
p6245
VNP|<Ssub-PONCT>
p6246
tp6247
(dp6248
g1263
F0.5
ss(VNPP
p6249
g1987
tp6250
(dp6251
VNP
p6252
F7.000840100812098e-05
ss(VSrel
p6253
VNP|<PONCT-NP>
p6254
tp6255
(dp6256
VNP|<Srel-PONCT>
p6257
F0.17647058823529413
ss(VVN
p6258
VVPinf|<VPinf-COORD>
p6259
tp6260
(dp6261
VVPinf
p6262
F0.0017985611510791368
ss(VADV
p6263
g4483
tp6264
(dp6265
VVPpart|<ADV-PP>
p6266
F0.09090909090909091
ss(VPP
p6267
VSENT|<VN-VPinf>
p6268
tp6269
(dp6270
VSENT|<PP-VN>
p6271
F0.4
ss(VVN
p6272
VSsub|<VPinf-COORD>
p6273
tp6274
(dp6275
VSsub|<VN-VPinf>
p6276
F0.038461538461538464
ss(VVPP
p6277
VVPpart|<PP-COORD>
p6278
tp6279
(dp6280
VVPpart
p6281
F0.015217391304347827
ss(VVN
p6282
g3109
tp6283
(dp6284
VVPinf
p6285
F0.007194244604316547
sg4926
F0.04451038575667656
ss(VVPP
p6286
VVPpart|<PONCT-PP>
p6287
tp6288
(dp6289
VVPpart
p6290
F0.0010869565217391304
sVVPpart|<VPP-PONCT>
p6291
F0.25
ss(VVN
p6292
VSENT|<VPinf-Ssub>
p6293
tp6294
(dp6295
VSENT|<VN-VPinf>
p6296
F0.018518518518518517
sVSENT
p6297
F0.0012101653892698668
ss(g64
g3691
tp6298
(dp6299
VPP
p6300
F0.00012751849018107625
ss(VCLS
p6301
VVN|<V-ADV>
p6302
tp6303
(dp6304
VVN
p6305
F0.0059906811626359
ss(VVN
p6306
VSENT|<VPinf-COORD>
p6307
tp6308
(dp6309
VSENT|<VN-VPinf>
p6310
F0.06481481481481481
sVSENT
p6311
F0.0008067769261799112
ss(VVPinf
p6312
VSENT|<PP-PONCT>
p6313
tp6314
(dp6315
VSENT|<VPinf-PP>
p6316
F0.9090909090909091
ss(VNP
p6317
VSENT|<PONCT-Sint>
p6318
tp6319
(dp6320
VSENT
p6321
F0.0016135538523598225
sVSENT|<NP-PONCT>
p6322
F0.014874141876430207
ss(VET
p6323
VSENT|<NP-PONCT>
p6324
tp6325
(dp6326
VSENT|<ET-NP>
p6327
F1.0
ss(VADV
p6328
g4302
tp6329
(dp6330
VPP
p6331
F0.00012751849018107625
ss(VADV
p6332
g3110
tp6333
(dp6334
VSENT|<ADV-NP>
p6335
F0.6320754716981132
sVSENT
p6336
F0.0012101653892698668
ss(VADV
p6337
VSENT|<PP-PONCT>
p6338
tp6339
(dp6340
g1905
F0.7241379310344828
sVSENT
p6341
F0.0016135538523598225
ss(VADJ
p6342
VNP|<NC-NC>
p6343
tp6344
(dp6345
VNP|<ADJ-NC>
p6346
F0.10453648915187377
sVNP
p6347
F0.005530663679641557
ss(VVPinf
p6348
g31
tp6349
(dp6350
VSsub|<VPinf-PONCT>
p6351
F0.06666666666666667
ss(VNP
p6352
VVPinf|<ADV-Ssub>
p6353
tp6354
(dp6355
VVPinf|<NP-ADV>
p6356
F0.25
ss(g64
VPP|<NP-ADV>
p6357
tp6358
(dp6359
VPP
p6360
F0.00038255547054322876
ss(VAdP
p6361
VSENT|<PP-PP>
p6362
tp6363
(dp6364
VSENT|<AdP-PP>
p6365
F0.14285714285714285
ss(VCS
p6366
VVN
p6367
tp6368
(dp6369
g4489
F0.02768166089965398
ss(VPONCT
p6370
g5302
tp6371
(dp6372
g4514
F0.71875
ss(VCC
p6373
g3231
tp6374
(dp6375
VCOORD
p6376
F0.0012547051442910915
ss(VADV
p6377
VSENT|<VN-Ssub>
p6378
tp6379
(dp6380
VSENT
p6381
F0.0012101653892698668
ss(VPP
p6382
VSrel|<PP-NP>
p6383
tp6384
(dp6385
VSrel|<PP-PP>
p6386
F0.05
ss(VCS
p6387
g3518
tp6388
(dp6389
VSsub
p6390
F0.0017301038062283738
ss(VPONCT
p6391
g4738
tp6392
(dp6393
VSENT|<PONCT-VN>
p6394
F0.04642857142857143
ss(VADV
p6395
VSsub|<ADV-NP>
p6396
tp6397
(dp6398
VSsub|<ADV-ADV>
p6399
F0.4
ss(VVN
p6400
VSENT|<AdP-PP>
p6401
tp6402
(dp6403
VSENT|<VN-AdP>
p6404
F0.25
sVSENT
p6405
F0.0004033884630899556
ss(VVN
p6406
VVPinf|<PP-PONCT>
p6407
tp6408
(dp6409
VVPinf
p6410
F0.0035971223021582736
sVVPinf|<VN-PP>
p6411
F0.10810810810810811
ss(VVN
p6412
VSint|<NP-Ssub>
p6413
tp6414
(dp6415
VSint|<VN-NP>
p6416
F0.021739130434782608
ss(VPONCT
p6417
VNP|<ET-ET>
p6418
tp6419
(dp6420
VNP
p6421
F7.000840100812098e-05
sg4617
F1.0
ss(VPONCT
p6422
g4145
tp6423
(dp6424
g1581
F0.0010869565217391304
ss(VDET
p6425
g4412
tp6426
(dp6427
VNP
p6428
F7.000840100812098e-05
ss(VPP
p6429
VSsub|<NP-VPinf>
p6430
tp6431
(dp6432
VSsub|<PP-NP>
p6433
F0.14285714285714285
ss(VAP
p6434
VNP|<PP-PP>
p6435
tp6436
(dp6437
g4897
F0.07218683651804671
ss(VNP
p6438
VCOORD|<PONCT-COORD>
p6439
tp6440
(dp6441
VCOORD|<NP-PONCT>
p6442
F0.09090909090909091
ss(VVPpart
p6443
VNP|<PONCT-ADV>
p6444
tp6445
(dp6446
VNP|<VPpart-PONCT>
p6447
F0.0196078431372549
ss(VVN
p6448
g3044
tp6449
(dp6450
VVPinf
p6451
F0.0008992805755395684
ss(VAdP
p6452
VVPpart|<VPP-PONCT>
p6453
tp6454
(dp6455
VVPpart
p6456
F0.0010869565217391304
ss(VVN
p6457
g3076
tp6458
(dp6459
VSsub|<VN-NP>
p6460
F0.0392156862745098
ss(VAP
p6461
g1468
tp6462
(dp6463
VNP|<AP-PONCT>
p6464
F0.05660377358490566
ss(VPRO
p6465
VPP
p6466
tp6467
(dp6468
VNP
p6469
F0.002660319238308597
sg2385
F0.8846153846153846
ss(g1699
VNC
p6470
tp6471
(dp6472
g851
F0.75
ss(VVPpart
p6473
g2750
tp6474
(dp6475
g6147
F0.022727272727272728
ss(VSint
p6476
VNC
p6477
tp6478
(dp6479
VNP
p6480
F7.000840100812098e-05
ss(VNP
p6481
VSint|<PP-PONCT>
p6482
tp6483
(dp6484
VSint|<NP-PP>
p6485
F0.42857142857142855
ss(VPONCT
p6486
VVPP
p6487
tp6488
(dp6489
VVN|<PONCT-VPP>
p6490
F1.0
ss(g64
VPP|<PONCT-NP>
p6491
tp6492
(dp6493
VPP
p6494
F0.0006375924509053813
ss(VNP
p6495
VVPpart|<PP-VPinf>
p6496
tp6497
(dp6498
g3046
F0.03125
ss(VVPinf
p6499
VCOORD
p6500
tp6501
(dp6502
g4133
F1.0
sg1763
F1.0
sVSrel|<VPinf-COORD>
p6503
F1.0
sg6273
F1.0
sVSint|<VPinf-COORD>
p6504
F1.0
ss(VNC
p6505
g785
tp6506
(dp6507
VNP
p6508
F0.00014001680201624196
sVNP|<NC-PP>
p6509
F0.0009136592051164915
ss(VAP
p6510
g3679
tp6511
(dp6512
g494
F1.0
sg23
F1.0
sg982
F1.0
sVSsub|<AP-Ssub>
p6513
F0.6666666666666666
sVSint|<AP-Ssub>
p6514
F1.0
ss(g232
VVINF
p6515
tp6516
(dp6517
VVN|<V-VINF>
p6518
F1.0
sVVN
p6519
F0.0008875083203905037
ss(VPONCT
p6520
VNP|<DET-NC>
p6521
tp6522
(dp6523
VNP
p6524
F0.0008401008120974517
sg5854
F0.2
ss(VAP
p6525
VNP|<COORD-COORD>
p6526
tp6527
(dp6528
VNP|<AP-COORD>
p6529
F0.19444444444444445
ss(VVN
p6530
g4854
tp6531
(dp6532
VSENT
p6533
F0.0004033884630899556
ss(VSsub
p6534
VSENT|<COORD-NP>
p6535
tp6536
(dp6537
VSENT|<Ssub-COORD>
p6538
F0.14285714285714285
ss(g3357
VCOORD|<PP-PP>
p6539
tp6540
(dp6541
VCOORD|<VN-PP>
p6542
F0.13333333333333333
ss(VAdP
p6543
VVPinf|<PONCT-VPinf>
p6544
tp6545
(dp6546
VVPinf|<AdP-PONCT>
p6547
F0.5
ss(VADV
p6548
VVPpart
p6549
tp6550
(dp6551
VCOORD|<ADV-VPpart>
p6552
F1.0
ss(VNP
p6553
VCOORD|<PONCT-Sint>
p6554
tp6555
(dp6556
VCOORD|<NP-PONCT>
p6557
F0.09090909090909091
ss(VVS
p6558
VVPP
p6559
tp6560
(dp6561
g5334
F0.8333333333333334
sVVN
p6562
F0.0037719103616596404
ss(VPP
p6563
g2378
tp6564
(dp6565
g1732
F0.16666666666666666
ss(VPP
p6566
g2379
tp6567
(dp6568
VVPpart|<PP-PONCT>
p6569
F0.045454545454545456
ss(VCC
p6570
g1393
tp6571
(dp6572
VCOORD
p6573
F0.0012547051442910915
ss(g64
g788
tp6574
(dp6575
VPP
p6576
F0.00012751849018107625
ss(VPP
p6577
VNP|<PONCT-Sint>
p6578
tp6579
(dp6580
VNP|<PP-PONCT>
p6581
F0.00749063670411985
ss(VPONCT
p6582
VSENT|<VPpart-Ssub>
p6583
tp6584
(dp6585
VSENT|<PONCT-VPpart>
p6586
F0.029411764705882353
ss(VSsub
p6587
g529
tp6588
(dp6589
g5575
F0.5
ss(g232
g6490
tp6590
(dp6591
VVN
p6592
F0.00044375416019525185
ss(VNP
p6593
g2444
tp6594
(dp6595
VSrel
p6596
F0.002150537634408602
ss(VPP
p6597
VNP|<AP-Srel>
p6598
tp6599
(dp6600
VNP|<PP-AP>
p6601
F0.03278688524590164
ss(VNP
p6602
VSENT|<PP-VPinf>
p6603
tp6604
(dp6605
VSENT|<NP-PP>
p6606
F0.046511627906976744
ss(VADV
p6607
VSENT|<VN-ADV>
p6608
tp6609
(dp6610
VSENT
p6611
F0.0012101653892698668
ss(VNC
p6612
VNP|<AP-PONCT>
p6613
tp6614
(dp6615
VNP
p6616
F0.0024502940352842343
sVNP|<NC-AP>
p6617
F0.059602649006622516
ss(VCS
p6618
VSsub|<PP-NP>
p6619
tp6620
(dp6621
VSsub
p6622
F0.0034602076124567475
ss(VCC
p6623
g4115
tp6624
(dp6625
VCOORD
p6626
F0.0018820577164366374
ss(VPROREL
p6627
VSrel|<NP-VN>
p6628
tp6629
(dp6630
VSrel
p6631
F0.002150537634408602
ss(VPP
p6632
VVPinf|<COORD-PONCT>
p6633
tp6634
(dp6635
VVPinf|<PP-COORD>
p6636
F0.058823529411764705
ss(VPONCT
p6637
g3963
tp6638
(dp6639
VNP|<PONCT-VPpart>
p6640
F0.19327731092436976
ss(g4794
g4192
tp6641
(dp6642
VSENT
p6643
F0.0012101653892698668
sVSENT|<VN-PP>
p6644
F0.03260869565217391
ss(VNPP
p6645
VSrel
p6646
tp6647
(dp6648
g2435
F1.0
sVNP
p6649
F0.00021002520302436292
ss(VVN
p6650
g2594
tp6651
(dp6652
VSENT|<VN-AP>
p6653
F0.09333333333333334
sVSENT
p6654
F0.0004033884630899556
ss(VADJ
p6655
VNP|<NC-COORD>
p6656
tp6657
(dp6658
VNP
p6659
F0.00014001680201624196
sVNP|<ADJ-NC>
p6660
F0.015779092702169626
ss(VNC
p6661
VNP|<PONCT-Sint>
p6662
tp6663
(dp6664
VNP|<NC-PONCT>
p6665
F0.012121212121212121
ss(VSint
p6666
VVN|<PONCT-AdP>
p6667
tp6668
(dp6669
g2559
F1.0
ss(VVN
p6670
VSENT|<ADV-AdP>
p6671
tp6672
(dp6673
VSENT
p6674
F0.0012101653892698668
ss(VADV
p6675
VNP|<PONCT-Srel>
p6676
tp6677
(dp6678
VNP|<ADV-PONCT>
p6679
F0.14285714285714285
ss(VCS
p6680
VSsub|<Sint-PONCT>
p6681
tp6682
(dp6683
VSsub
p6684
F0.0017301038062283738
ss(g2963
VSsub|<VN-ADV>
p6685
tp6686
(dp6687
VSsub|<AP-VN>
p6688
F0.3333333333333333
ss(VDET
p6689
g1719
tp6690
(dp6691
VNP
p6692
F0.0002800336040324839
ss(VCLO
p6693
VVN|<VINF-ADV>
p6694
tp6695
(dp6696
VVN
p6697
F0.00022187708009762592
ss(VPP
p6698
VCOORD
p6699
tp6700
(dp6701
VSENT|<PP-COORD>
p6702
F0.0196078431372549
sg1451
F1.0
sg4434
F0.6666666666666666
sg752
F0.8823529411764706
sg6278
F0.8888888888888888
sVNP|<PP-COORD>
p6703
F0.6804123711340206
sg3843
F1.0
sVAP|<PP-COORD>
p6704
F1.0
sg2240
F0.6
ss(VVPpart
p6705
VADV
p6706
tp6707
(dp6708
g2752
F1.0
ss(VVN
p6709
VSrel|<ADV-Ssub>
p6710
tp6711
(dp6712
VSrel|<VN-ADV>
p6713
F0.01694915254237288
ss(VVPP
p6714
VPP
p6715
tp6716
(dp6717
g4381
F0.8125
sVVPpart
p6718
F0.3282608695652174
ss(VADJ
p6719
g299
tp6720
(dp6721
VNP
p6722
F7.000840100812098e-05
ss(VPONCT
p6723
VNP|<PP-NPP>
p6724
tp6725
(dp6726
VNP|<PONCT-PP>
p6727
F0.009345794392523364
ss(VVN
p6728
VSsub|<VPinf-Ssub>
p6729
tp6730
(dp6731
VSsub|<VN-VPinf>
p6732
F0.01282051282051282
ss(VDET
p6733
VNP|<PONCT-DET>
p6734
tp6735
(dp6736
VNP
p6737
F0.00014001680201624196
sVNP|<DET-PONCT>
p6738
F0.6666666666666666
ss(VAP
p6739
VNP|<NC-Srel>
p6740
tp6741
(dp6742
VNP|<AP-NC>
p6743
F0.045454545454545456
ss(VVPinf
p6744
VSENT|<PONCT-VPinf>
p6745
tp6746
(dp6747
VSENT|<VPinf-PONCT>
p6748
F0.016091954022988506
sVSENT
p6749
F0.0004033884630899556
ss(VVN
p6750
g4747
tp6751
(dp6752
g1711
F1.0
ss(VPONCT
p6753
g190
tp6754
(dp6755
g3883
F0.175
sVSENT
p6756
F0.0008067769261799112
ss(VPONCT
p6757
VNP|<Srel-PP>
p6758
tp6759
(dp6760
VNP|<PONCT-Srel>
p6761
F0.01
ss(VADV
p6762
VVIMP
p6763
tp6764
(dp6765
VVN
p6766
F0.00022187708009762592
ss(VVN
p6767
VVPinf|<AdP-NP>
p6768
tp6769
(dp6770
g65
F0.4
ss(VAdP
p6771
VSsub
p6772
tp6773
(dp6774
g865
F1.0
ss(VNC
p6775
g1337
tp6776
(dp6777
g5960
F0.3181818181818182
sVNP
p6778
F0.00014001680201624196
ss(VPONCT
p6779
g441
tp6780
(dp6781
g4255
F0.25
ss(VPONCT
p6782
VSrel|<VN-PP>
p6783
tp6784
(dp6785
VSrel|<PONCT-VN>
p6786
F0.5
ss(VDET
p6787
g6023
tp6788
(dp6789
VNP
p6790
F0.00042005040604872583
ss(VADV
p6791
g5028
tp6792
(dp6793
VSrel|<ADV-NP>
p6794
F0.047619047619047616
ss(VPREF
p6795
VNPP
p6796
tp6797
(dp6798
VNP
p6799
F7.000840100812098e-05
ss(VCOORD
p6800
VNP|<PONCT-VPpart>
p6801
tp6802
(dp6803
VNP|<COORD-PONCT>
p6804
F0.027777777777777776
ss(VADV
p6805
g2799
tp6806
(dp6807
VSsub
p6808
F0.0034602076124567475
ss(VCOORD
p6809
VPP
p6810
tp6811
(dp6812
g2853
F0.9183673469387755
sg1604
F1.0
sg2767
F1.0
sg5951
F1.0
ss(VNPP
p6813
g4244
tp6814
(dp6815
VNP|<NPP-COORD>
p6816
F0.02
ss(VCC
p6817
g6442
tp6818
(dp6819
VCOORD
p6820
F0.0012547051442910915
ss(VNP
p6821
g2599
tp6822
(dp6823
VPP|<NP-PP>
p6824
F0.047619047619047616
ss(VADV
p6825
VSrel
p6826
tp6827
(dp6828
g789
F0.01904761904761905
ss(VADV
p6829
g1750
tp6830
(dp6831
VVN
p6832
F0.00022187708009762592
ss(VCOORD
p6833
VNP|<PP-AP>
p6834
tp6835
(dp6836
VNP|<COORD-PP>
p6837
F0.02040816326530612
ss(VNC
p6838
VNP
p6839
tp6840
(dp6841
VNP
p6842
F0.00427051246149538
sg2119
F0.7333333333333333
ss(VNC
p6843
VNC
p6844
tp6845
(dp6846
VNP
p6847
F0.0076309157098851865
sg5806
F0.8159203980099502
ss(VPONCT
p6848
VNC
p6849
tp6850
(dp6851
g280
F0.2765957446808511
ss(VPP
p6852
VSENT|<PONCT-PONCT>
p6853
tp6854
(dp6855
VSENT|<PP-PONCT>
p6856
F0.0075075075075075074
ss(VPP
p6857
g5435
tp6858
(dp6859
g4634
F0.045454545454545456
ss(VPONCT
p6860
g5898
tp6861
(dp6862
VAP
p6863
F0.0003620564808110065
ss(VCOORD
p6864
VNP|<AP-VPpart>
p6865
tp6866
(dp6867
VNP|<COORD-AP>
p6868
F0.125
ss(g64
g700
tp6869
(dp6870
VPP
p6871
F0.0006375924509053813
ss(VNP
p6872
g5436
tp6873
(dp6874
g5722
F0.07692307692307693
ss(VPONCT
p6875
VSENT|<AP-PONCT>
p6876
tp6877
(dp6878
VSENT|<PONCT-AP>
p6879
F1.0
ss(g5798
VSENT|<Sint-PONCT>
p6880
tp6881
(dp6882
g1944
F1.0
ss(VAP
p6883
VSsub|<VN-NP>
p6884
tp6885
(dp6886
VSsub|<AP-VN>
p6887
F0.6666666666666666
ss(VCC
p6888
g3074
tp6889
(dp6890
g3974
F0.0006273525721455458
ss(VVN
p6891
g6503
tp6892
(dp6893
VSrel|<VN-VPinf>
p6894
F0.018518518518518517
ss(VADV
p6895
VVN|<VINF-VPP>
p6896
tp6897
(dp6898
VVN
p6899
F0.00022187708009762592
ss(VCLO
p6900
g232
tp6901
(dp6902
g3099
F0.7466666666666667
sVVN
p6903
F0.009318837364100288
ss(VPP
p6904
VSsub|<PONCT-NP>
p6905
tp6906
(dp6907
VSsub|<PP-PONCT>
p6908
F0.3023255813953488
ss(VVN
p6909
g730
tp6910
(dp6911
VSENT|<VN-AdP>
p6912
F0.3333333333333333
ss(VPP
p6913
g4552
tp6914
(dp6915
VSsub|<PP-PONCT>
p6916
F0.09302325581395349
ss(VVN
p6917
VVPinf|<NP-NP>
p6918
tp6919
(dp6920
VVPinf
p6921
F0.0035971223021582736
sVVPinf|<VN-NP>
p6922
F0.017804154302670624
ss(VADJ
p6923
g6065
tp6924
(dp6925
VNP
p6926
F7.000840100812098e-05
sVAP
p6927
F0.02606806661839247
sg2302
F0.8333333333333334
ss(VADV
p6928
g6433
tp6929
(dp6930
VSsub|<ADV-PP>
p6931
F0.13333333333333333
ss(VNC
p6932
VNP|<NPP-NC>
p6933
tp6934
(dp6935
VNP
p6936
F7.000840100812098e-05
sVNP|<NC-NPP>
p6937
F0.02027027027027027
ss(VVN
p6938
VSENT|<Ssub-NP>
p6939
tp6940
(dp6941
g5407
F0.018518518518518517
ss(VVN
p6942
g362
tp6943
(dp6944
VSsub|<VN-AdP>
p6945
F0.2
ss(VVPinf
p6946
VSENT|<COORD-PONCT>
p6947
tp6948
(dp6949
g6307
F0.9473684210526315
ss(VDET
p6950
VNP|<NC-PONCT>
p6951
tp6952
(dp6953
VNP
p6954
F0.006580789694763372
sVNP|<DET-NC>
p6955
F0.022222222222222223
ss(VET
p6956
g5332
tp6957
(dp6958
VNP|<ET-ET>
p6959
F0.030303030303030304
ss(VADV
p6960
VPP|<PONCT-COORD>
p6961
tp6962
(dp6963
g2606
F1.0
ss(VNP
p6964
VVPP
p6965
tp6966
(dp6967
VVPpart
p6968
F0.002173913043478261
sVVN|<NP-VPP>
p6969
F1.0
ss(VPONCT
p6970
VNP|<COORD-PONCT>
p6971
tp6972
(dp6973
g1236
F0.13043478260869565
ss(VNPP
p6974
g3835
tp6975
(dp6976
VNP
p6977
F0.00014001680201624196
sg5707
F0.3333333333333333
ss(g1978
VSENT|<VN-ADV>
p6978
tp6979
(dp6980
VSENT
p6981
F0.0004033884630899556
ss(VAP
p6982
VSENT|<ADV-PP>
p6983
tp6984
(dp6985
VSENT|<AP-ADV>
p6986
F0.5
ss(VAdP
p6987
VSENT|<Ssub-PONCT>
p6988
tp6989
(dp6990
g5598
F1.0
ss(VCLR
p6991
VVN|<CLO-V>
p6992
tp6993
(dp6994
g5727
F1.0
sVVN
p6995
F0.00044375416019525185
ss(VPP
p6996
VSrel|<NP-PP>
p6997
tp6998
(dp6999
VSrel|<PP-NP>
p7000
F0.125
sVSrel
p7001
F0.002150537634408602
ss(VCS
p7002
VSsub|<NP-PP>
p7003
tp7004
(dp7005
VSsub
p7006
F0.0034602076124567475
ss(VADV
p7007
g5565
tp7008
(dp7009
g6158
F0.13333333333333333
ss(VADV
p7010
VSENT|<PONCT-Ssub>
p7011
tp7012
(dp7013
VSENT|<ADV-PONCT>
p7014
F0.07142857142857142
sVSENT
p7015
F0.0004033884630899556
ss(g3487
VSENT|<PONCT-NP>
p7016
tp7017
(dp7018
VSENT|<PP-PONCT>
p7019
F0.11561561561561562
sVSENT
p7020
F0.07139975796692215
ss(g5234
VSENT|<Ssub-PONCT>
p7021
tp7022
(dp7023
g6293
F1.0
ss(VADJ
p7024
VAP|<PONCT-ADJ>
p7025
tp7026
(dp7027
VAP
p7028
F0.000724112961622013
ss(VPP
p7029
VSsub|<VN-ADV>
p7030
tp7031
(dp7032
VSsub|<PP-VN>
p7033
F0.2
ss(VAP
p7034
g954
tp7035
(dp7036
VNP|<AP-PONCT>
p7037
F0.1509433962264151
ss(VSsub
p7038
VSENT|<NP-VPinf>
p7039
tp7040
(dp7041
g6939
F1.0
ss(VPONCT
p7042
VCOORD|<VN-PP>
p7043
tp7044
(dp7045
VCOORD
p7046
F0.0006273525721455458
sg2720
F0.3333333333333333
ss(VVN
p7047
g3930
tp7048
(dp7049
VSENT|<VN-PP>
p7050
F0.005434782608695652
ss(VVPR
p7051
VVN|<ADV-VPP>
p7052
tp7053
(dp7054
VVN
p7055
F0.0008875083203905037
sVVN|<VPR-ADV>
p7056
F1.0
ss(VNC
p7057
VNP|<COORD-VPpart>
p7058
tp7059
(dp7060
VNP
p7061
F7.000840100812098e-05
sVNP|<NC-COORD>
p7062
F0.02666666666666667
ss(VNC
p7063
VNP|<ET-PONCT>
p7064
tp7065
(dp7066
VNP|<NC-ET>
p7067
F0.25
ss(VCLS
p7068
VVN|<V-NP>
p7069
tp7070
(dp7071
VVN
p7072
F0.00022187708009762592
ss(VVINF
p7073
VVN|<VPP-VPP>
p7074
tp7075
(dp7076
VVN
p7077
F0.00044375416019525185
ss(VPP
p7078
g4508
tp7079
(dp7080
VSrel
p7081
F0.008602150537634409
sg2990
F1.0
ss(VSsub
p7082
VVPinf|<PONCT-NP>
p7083
tp7084
(dp7085
VVPinf|<Ssub-PONCT>
p7086
F0.25
ss(VCLR
p7087
g273
tp7088
(dp7089
VVN
p7090
F0.00022187708009762592
ss(VVN
p7091
VVPinf
p7092
tp7093
(dp7094
VSENT|<VN-VPinf>
p7095
F0.004629629629629629
sVSsub|<VN-VPinf>
p7096
F0.782051282051282
sVSint
p7097
F0.05818181818181818
sg5642
F0.8333333333333334
sVVPpart
p7098
F0.01847826086956522
sg3296
F1.0
sg433
F0.9444444444444444
sg4250
F1.0
sVVPinf
p7099
F0.01618705035971223
sVSENT
p7100
F0.0004033884630899556
sg4338
F0.8857142857142857
ss(VADJ
p7101
VSsub
p7102
tp7103
(dp7104
VAP
p7105
F0.004344677769732078
sg1035
F1.0
ss(VVN
p7106
VVPinf|<ADV-VPinf>
p7107
tp7108
(dp7109
VVPinf
p7110
F0.0008992805755395684
ss(VPP
p7111
g3408
tp7112
(dp7113
VSENT|<PP-COORD>
p7114
F0.09803921568627451
ss(VVPpart
p7115
VNP|<PP-VPpart>
p7116
tp7117
(dp7118
VNP|<VPpart-PP>
p7119
F0.13043478260869565
ss(VADV
p7120
g150
tp7121
(dp7122
VCOORD|<ADV-NP>
p7123
F0.18181818181818182
ss(VVS
p7124
VVINF
p7125
tp7126
(dp7127
VVN
p7128
F0.00022187708009762592
ss(VNPP
p7129
VNP|<NPP-COORD>
p7130
tp7131
(dp7132
VNP
p7133
F0.0014001680201624195
sVNP|<NPP-NPP>
p7134
F0.05660377358490566
ss(VNP
p7135
g4023
tp7136
(dp7137
g353
F0.5
ss(VNC
p7138
VNP|<PONCT-Srel>
p7139
tp7140
(dp7141
VNP
p7142
F0.00014001680201624196
sg6951
F0.1393939393939394
ss(VVN
p7143
VSsub|<VPinf-NP>
p7144
tp7145
(dp7146
VSsub|<VN-VPinf>
p7147
F0.038461538461538464
ss(VCLR
p7148
VVPR
p7149
tp7150
(dp7151
VVN
p7152
F0.002440647881073885
ss(VNP
p7153
VSsub|<VPinf-Ssub>
p7154
tp7155
(dp7156
g1115
F0.1
ss(VNC
p7157
g4529
tp7158
(dp7159
VNP|<NC-PP>
p7160
F0.0009136592051164915
ss(VPP
p7161
VCOORD|<PONCT-PP>
p7162
tp7163
(dp7164
VCOORD|<PP-PONCT>
p7165
F0.3333333333333333
ss(VPP
p7166
VCOORD|<PONCT-VN>
p7167
tp7168
(dp7169
VCOORD|<PP-PONCT>
p7170
F0.08333333333333333
ss(VNC
p7171
g3585
tp7172
(dp7173
VNP
p7174
F0.0004900588070568468
sVNP|<NC-AP>
p7175
F0.018211920529801324
ss(g3591
VSsub|<NP-VPinf>
p7176
tp7177
(dp7178
VSsub|<VN-NP>
p7179
F0.0392156862745098
ss(VPONCT
p7180
VVPpart|<PP-PONCT>
p7181
tp7182
(dp7183
g3015
F0.23529411764705882
ss(VCLR
p7184
VVN|<CLO-VS>
p7185
tp7186
(dp7187
VVN
p7188
F0.00022187708009762592
ss(VCOORD
p7189
VNP|<PONCT-COORD>
p7190
tp7191
(dp7192
VNP|<COORD-PONCT>
p7193
F0.25
ss(VPONCT
p7194
g1893
tp7195
(dp7196
VSENT
p7197
F0.0004033884630899556
ss(VNC
p7198
g1017
tp7199
(dp7200
VNP
p7201
F0.0018202184262111453
sVNP|<NC-Srel>
p7202
F0.9530201342281879
ss(VADV
p7203
VNP|<AP-PONCT>
p7204
tp7205
(dp7206
g737
F0.6666666666666666
ss(VET
p7207
g1868
tp7208
(dp7209
VNP
p7210
F7.000840100812098e-05
ss(VADJ
p7211
VNP|<NC-PONCT>
p7212
tp7213
(dp7214
VNP|<ADJ-NC>
p7215
F0.04339250493096647
sVNP
p7216
F0.0002800336040324839
ss(VPONCT
p7217
VNP|<NP-Srel>
p7218
tp7219
(dp7220
VNP|<PONCT-NP>
p7221
F0.0021551724137931034
ss(VAP
p7222
VNP|<NPP-PP>
p7223
tp7224
(dp7225
g2013
F0.21428571428571427
ss(VAdP
p7226
VPP
p7227
tp7228
(dp7229
g4729
F1.0
sVVPinf|<AdP-PP>
p7230
F0.3333333333333333
ss(VNPP
p7231
VNP|<PP-PONCT>
p7232
tp7233
(dp7234
VNP
p7235
F7.000840100812098e-05
sVNP|<NPP-PP>
p7236
F0.08955223880597014
ss(VNPP
p7237
g1883
tp7238
(dp7239
VNP
p7240
F7.000840100812098e-05
ss(VADJ
p7241
VNP|<NPP-AP>
p7242
tp7243
(dp7244
VNP
p7245
F7.000840100812098e-05
sVNP|<ADJ-NPP>
p7246
F0.2727272727272727
ss(VPP
p7247
g1079
tp7248
(dp7249
VSENT|<PP-PP>
p7250
F0.8031496062992126
sVSENT
p7251
F0.0004033884630899556
ss(VVPP
p7252
VVPpart|<PP-NP>
p7253
tp7254
(dp7255
VVPpart
p7256
F0.002173913043478261
ss(VPP
p7257
VSENT|<ADV-PONCT>
p7258
tp7259
(dp7260
VSENT|<PP-ADV>
p7261
F0.5
ss(VNPP
p7262
VNP|<PP-PP>
p7263
tp7264
(dp7265
VNP
p7266
F7.000840100812098e-05
sVNP|<NPP-PP>
p7267
F0.014925373134328358
ss(VCOORD
p7268
VAP
p7269
tp7270
(dp7271
g249
F0.875
sVSsub|<COORD-AP>
p7272
F1.0
ss(VPP
p7273
VSsub|<NP-VN>
p7274
tp7275
(dp7276
g6619
F0.2857142857142857
ss(VCC
p7277
VADV
p7278
tp7279
(dp7280
g6809
F0.011292346298619825
ss(g3778
VNP|<PONCT-VPinf>
p7281
tp7282
(dp7283
VNP|<AP-PONCT>
p7284
F0.006289308176100629
ss(VDETWH
p7285
VNC
p7286
tp7287
(dp7288
VNP
p7289
F0.0006300756090730887
ss(VVN
p7290
VADV
p7291
tp7292
(dp7293
g5732
F0.2542372881355932
sVSint|<VN-ADV>
p7294
F0.11764705882352941
sVSint
p7295
F0.0036363636363636364
sVSENT|<VN-ADV>
p7296
F0.0049504950495049506
sVVPpart
p7297
F0.002173913043478261
sVCOORD|<VN-ADV>
p7298
F0.23529411764705882
sg3010
F0.05263157894736842
sg1268
F0.01618705035971223
sVSsub|<VN-ADV>
p7299
F0.05194805194805195
ss(VVN
p7300
VSENT|<NP-Ssub>
p7301
tp7302
(dp7303
VSENT|<VN-NP>
p7304
F0.015789473684210527
sVSENT
p7305
F0.0008067769261799112
ss(VVN
p7306
g3219
tp7307
(dp7308
VSENT
p7309
F0.0004033884630899556
ss(VVN
p7310
g2068
tp7311
(dp7312
g1680
F0.16666666666666666
ss(VVN
p7313
g781
tp7314
(dp7315
VSint|<VN-PP>
p7316
F0.02857142857142857
ss(VET
p7317
VNPP
p7318
tp7319
(dp7320
VNP
p7321
F0.0003500420050406049
sg2282
F0.6666666666666666
ss(VADV
p7322
g2092
tp7323
(dp7324
VVN|<ADV-PONCT>
p7325
F1.0
ss(VPP
p7326
VSrel|<PONCT-PP>
p7327
tp7328
(dp7329
g417
F0.3684210526315789
ss(VADV
p7330
VSsub
p7331
tp7332
(dp7333
g641
F1.0
sg2230
F1.0
sg5445
F1.0
sg4743
F0.047619047619047616
sVNP|<ADV-Ssub>
p7334
F1.0
sg6710
F1.0
sg1999
F1.0
sg2869
F1.0
ss(VNC
p7335
VADV
p7336
tp7337
(dp7338
VNP
p7339
F0.00021002520302436292
sVNP|<NC-ADV>
p7340
F0.6363636363636364
ss(VNP
p7341
VSrel|<ADV-VN>
p7342
tp7343
(dp7344
VSrel
p7345
F0.002150537634408602
ss(VPONCT
p7346
g1353
tp7347
(dp7348
VSENT
p7349
F0.002016942315449778
ss(VADV
p7350
VSsub|<PONCT-Sint>
p7351
tp7352
(dp7353
VSsub|<ADV-PONCT>
p7354
F0.16666666666666666
ss(VPRO
p7355
VNP|<PONCT-NP>
p7356
tp7357
(dp7358
VNP
p7359
F0.00014001680201624196
ss(VADV
p7360
VVPpart|<PP-PP>
p7361
tp7362
(dp7363
VVPpart|<ADV-PP>
p7364
F0.09090909090909091
ss(VADV
p7365
VNP|<DET-PP>
p7366
tp7367
(dp7368
VNP
p7369
F7.000840100812098e-05
ss(VADV
p7370
g4200
tp7371
(dp7372
g4053
F0.5714285714285714
ss(VAP
p7373
g4287
tp7374
(dp7375
VNP|<AP-PP>
p7376
F0.08067940552016985
ss(VPRO
p7377
VNP
p7378
tp7379
(dp7380
VNP
p7381
F7.000840100812098e-05
ss(VNP
p7382
g6140
tp7383
(dp7384
VVPpart
p7385
F0.004347826086956522
ss(VDET
p7386
g7202
tp7387
(dp7388
VNP
p7389
F0.008751050126015122
sVNP|<DET-NC>
p7390
F0.011111111111111112
ss(VPONCT
p7391
VSsub|<Ssub-PONCT>
p7392
tp7393
(dp7394
g576
F0.2
ss(VNPP
p7395
g4781
tp7396
(dp7397
VNP
p7398
F0.006720806496779613
sg3266
F0.1792452830188679
ss(VDET
p7399
g3125
tp7400
(dp7401
VNP
p7402
F0.07518902268272193
sVNP|<DET-NC>
p7403
F0.12777777777777777
ss(VADV
p7404
VVPpart|<VPP-PONCT>
p7405
tp7406
(dp7407
g3748
F0.003260869565217391
ss(VADV
p7408
g5038
tp7409
(dp7410
VAdP
p7411
F0.009523809523809525
ss(g232
VVN|<AdP-VPP>
p7412
tp7413
(dp7414
VVN|<V-AdP>
p7415
F1.0
sVVN
p7416
F0.0008875083203905037
ss(VADV
p7417
g1272
tp7418
(dp7419
VAP
p7420
F0.0018102824040550326
ss(VADV
p7421
g6296
tp7422
(dp7423
VSENT
p7424
F0.0008067769261799112
ss(VDET
p7425
VNP|<AP-PONCT>
p7426
tp7427
(dp7428
VNP
p7429
F7.000840100812098e-05
ss(VCLS
p7430
g232
tp7431
(dp7432
g6650
F0.11826048369203461
sVVN|<CLS-V>
p7433
F1.0
ss(VADV
p7434
VSrel|<VN-PP>
p7435
tp7436
(dp7437
g7342
F1.0
ss(VVN
p7438
g4630
tp7439
(dp7440
VSsub|<VN-VPinf>
p7441
F0.01282051282051282
ss(VVPpart
p7442
VSENT|<PONCT-VN>
p7443
tp7444
(dp7445
VSENT|<VPpart-PONCT>
p7446
F0.045454545454545456
sVSENT
p7447
F0.0024203307785397336
ss(VADV
p7448
VSrel|<PONCT-VN>
p7449
tp7450
(dp7451
g2441
F0.25
ss(VPONCT
p7452
VVN
p7453
tp7454
(dp7455
VSsub|<PONCT-VN>
p7456
F0.03225806451612903
ss(VDET
p7457
g4461
tp7458
(dp7459
VNP
p7460
F0.03346401568188183
sg2271
F0.8888888888888888
ss(VNP
p7461
g5057
tp7462
(dp7463
g3132
F0.5
ss(VVN
p7464
g3111
tp7465
(dp7466
VSint
p7467
F0.007272727272727273
sVSint|<VN-NP>
p7468
F0.06521739130434782
ss(VPP
p7469
VVPinf|<PP-PONCT>
p7470
tp7471
(dp7472
VVPinf|<PP-PP>
p7473
F0.04878048780487805
ss(VADJ
p7474
g1653
tp7475
(dp7476
VNP|<ADJ-NC>
p7477
F0.0019723865877712033
ss(VVN
p7478
VVPpart|<ADV-NP>
p7479
tp7480
(dp7481
VVPpart
p7482
F0.007608695652173913
ss(VPP
p7483
g3224
tp7484
(dp7485
VNP|<PP-ADV>
p7486
F1.0
ss(VPONCT
p7487
g4494
tp7488
(dp7489
g747
F0.3333333333333333
ss(VPP
p7490
VSint|<PONCT-PP>
p7491
tp7492
(dp7493
VSint|<PP-PONCT>
p7494
F0.11538461538461539
ss(VCS
p7495
VSsub|<Ssub-PONCT>
p7496
tp7497
(dp7498
VSsub
p7499
F0.015570934256055362
ss(VNP
p7500
VNPP
p7501
tp7502
(dp7503
g5266
F1.0
ss(VSint
p7504
VPONCT
p7505
tp7506
(dp7507
g2586
F0.5
sg2195
F0.7228915662650602
sg28
F0.25
sg2425
F1.0
sVNP|<Sint-PONCT>
p7508
F0.6666666666666666
ss(VNPP
p7509
g1591
tp7510
(dp7511
VNP
p7512
F0.00014001680201624196
sVNP|<NPP-PP>
p7513
F0.029850746268656716
ss(VNP
p7514
VSENT|<VPinf-COORD>
p7515
tp7516
(dp7517
VSENT|<NP-VPinf>
p7518
F0.02631578947368421
ss(VADJ
p7519
g2380
tp7520
(dp7521
VAP
p7522
F0.000724112961622013
sVAP|<ADJ-PONCT>
p7523
F0.05263157894736842
ss(VPONCT
p7524
g4905
tp7525
(dp7526
g562
F0.24285714285714285
ss(VNC
p7527
VNP|<VPpart-VPpart>
p7528
tp7529
(dp7530
VNP
p7531
F0.00021002520302436292
sVNP|<NC-VPpart>
p7532
F0.006472491909385114
ss(VVN
p7533
g2551
tp7534
(dp7535
VSrel|<VN-AP>
p7536
F0.06666666666666667
ss(VCS
p7537
VSsub|<VN-PP>
p7538
tp7539
(dp7540
VSsub|<CS-VN>
p7541
F0.3333333333333333
sVSsub
p7542
F0.04671280276816609
ss(VADV
p7543
VAP|<PONCT-PP>
p7544
tp7545
(dp7546
g2334
F1.0
ss(VPONCT
p7547
g6738
tp7548
(dp7549
g6734
F0.4
ss(VNP
p7550
VADV
p7551
tp7552
(dp7553
g6357
F0.6666666666666666
sVVPinf|<NP-ADV>
p7554
F0.25
sg2149
F0.5
sVSrel|<NP-ADV>
p7555
F1.0
sg6543
F0.0380952380952381
ss(VNP
p7556
VSENT|<ADV-Ssub>
p7557
tp7558
(dp7559
VSENT|<NP-ADV>
p7560
F0.25
ss(VPONCT
p7561
VSint|<COORD-PONCT>
p7562
tp7563
(dp7564
g6229
F0.3333333333333333
ss(VPP
p7565
VSENT|<PP-Ssub>
p7566
tp7567
(dp7568
VSENT|<PP-PP>
p7569
F0.007874015748031496
ss(VNPP
p7570
g5521
tp7571
(dp7572
VNP
p7573
F7.000840100812098e-05
ss(VADV
p7574
VVN
p7575
tp7576
(dp7577
VVPinf
p7578
F0.0017985611510791368
sVVPinf|<ADV-VN>
p7579
F0.07142857142857142
ss(VNPP
p7580
VNP|<PONCT-AP>
p7581
tp7582
(dp7583
VNP
p7584
F0.0002800336040324839
sVNP|<NPP-PONCT>
p7585
F0.011834319526627219
ss(VDET
p7586
VNP|<PREF-NC>
p7587
tp7588
(dp7589
VNP
p7590
F0.00042005040604872583
ss(VNP
p7591
VSrel|<PONCT-VN>
p7592
tp7593
(dp7594
VSrel|<NP-PONCT>
p7595
F0.1875
ss(VPONCT
p7596
g3569
tp7597
(dp7598
VCOORD
p7599
F0.0012547051442910915
ss(VDET
p7600
g5554
tp7601
(dp7602
VNP
p7603
F0.0005600672080649678
sVNP|<DET-ADJ>
p7604
F0.1111111111111111
ss(VADV
p7605
VVPinf
p7606
tp7607
(dp7608
g3447
F1.0
sVSsub|<ADV-VPinf>
p7609
F1.0
sVSENT|<ADV-VPinf>
p7610
F0.0136986301369863
sg967
F1.0
sVCOORD|<ADV-VPinf>
p7611
F0.75
sg1650
F1.0
sg5276
F1.0
sg7107
F1.0
ss(VNP
p7612
VNP|<COORD-COORD>
p7613
tp7614
(dp7615
g3195
F0.14285714285714285
ss(VPONCT
p7616
VNP|<PP-VPpart>
p7617
tp7618
(dp7619
VNP|<PONCT-PP>
p7620
F0.018691588785046728
ss(VVPpart
p7621
VNP|<PP-PP>
p7622
tp7623
(dp7624
VNP|<VPpart-PP>
p7625
F0.043478260869565216
ss(VVN
p7626
g6316
tp7627
(dp7628
VSENT|<VN-VPinf>
p7629
F0.027777777777777776
sVSENT
p7630
F0.0004033884630899556
ss(VCS
p7631
VSsub|<PONCT-PONCT>
p7632
tp7633
(dp7634
VSsub
p7635
F0.0017301038062283738
ss(VSrel
p7636
VPONCT
p7637
tp7638
(dp7639
VNP|<Srel-PONCT>
p7640
F0.35294117647058826
sg130
F0.9230769230769231
ss(VPP
p7641
VSsub|<VN-AP>
p7642
tp7643
(dp7644
VSsub
p7645
F0.0017301038062283738
ss(VCS
p7646
VSsub|<PP-PONCT>
p7647
tp7648
(dp7649
VSsub
p7650
F0.015570934256055362
ss(VNP
p7651
g3436
tp7652
(dp7653
VSint
p7654
F0.007272727272727273
ss(VPP
p7655
g1585
tp7656
(dp7657
g3251
F1.0
ss(VPONCT
p7658
VNP|<NC-VPpart>
p7659
tp7660
(dp7661
VNP|<PONCT-NC>
p7662
F0.02127659574468085
ss(g4323
VSENT|<Sint-PONCT>
p7663
tp7664
(dp7665
g3744
F1.0
ss(VPONCT
p7666
VVN|<VPR-PONCT>
p7667
tp7668
(dp7669
VVN
p7670
F0.00022187708009762592
ss(VPONCT
p7671
VSENT|<PONCT-NC>
p7672
tp7673
(dp7674
VSENT
p7675
F0.0004033884630899556
ss(VADV
p7676
VSENT|<PONCT-NP>
p7677
tp7678
(dp7679
VSENT|<ADV-PONCT>
p7680
F0.07142857142857142
sVSENT
p7681
F0.016942315449778138
ss(VNPP
p7682
VAP
p7683
tp7684
(dp7685
VNP
p7686
F0.0019602352282273874
sVNP|<NPP-AP>
p7687
F0.6301369863013698
ss(VPONCT
p7688
g4970
tp7689
(dp7690
g6578
F1.0
ss(VPONCT
p7691
g5683
tp7692
(dp7693
VSint
p7694
F0.0036363636363636364
sVSint|<PONCT-VN>
p7695
F0.18181818181818182
ss(VCC
p7696
g1255
tp7697
(dp7698
VCOORD
p7699
F0.010037641154328732
ss(VADV
p7700
VAdP|<DET-ADV>
p7701
tp7702
(dp7703
g7226
F0.009523809523809525
ss(VPONCT
p7704
g4960
tp7705
(dp7706
VVPpart
p7707
F0.0010869565217391304
sg2360
F0.5
ss(VPP
p7708
VSENT|<NP-PP>
p7709
tp7710
(dp7711
VSENT|<PP-NP>
p7712
F0.06451612903225806
ss(VVN
p7713
g6514
tp7714
(dp7715
VSint
p7716
F0.0036363636363636364
ss(VCOORD
p7717
g4551
tp7718
(dp7719
g6633
F1.0
ss(VADJ
p7720
VVPpart
p7721
tp7722
(dp7723
g4089
F1.0
ss(VPONCT
p7724
g2744
tp7725
(dp7726
VCOORD|<PONCT-NP>
p7727
F0.07692307692307693
ss(VNP
p7728
VSrel|<PONCT-VPinf>
p7729
tp7730
(dp7731
VSrel|<NP-PONCT>
p7732
F0.0625
ss(VVPpart
p7733
VPP
p7734
tp7735
(dp7736
g1690
F0.782608695652174
ss(g64
g5341
tp7737
(dp7738
VPP
p7739
F0.00012751849018107625
ss(VNP
p7740
g2977
tp7741
(dp7742
g2715
F0.041666666666666664
sVSint
p7743
F0.007272727272727273
ss(VNPP
p7744
g1972
tp7745
(dp7746
VNP
p7747
F0.0013301596191542986
sVNP|<NPP-COORD>
p7748
F0.78
ss(VPONCT
p7749
g6912
tp7750
(dp7751
VSENT|<PONCT-VN>
p7752
F0.014285714285714285
ss(VADV
p7753
VVPpart|<PONCT-NP>
p7754
tp7755
(dp7756
VVPpart|<ADV-PONCT>
p7757
F0.4
ss(VAP
p7758
VSENT|<Ssub-PONCT>
p7759
tp7760
(dp7761
g4734
F1.0
ss(VVN
p7762
g3233
tp7763
(dp7764
VSint|<VN-PP>
p7765
F0.05714285714285714
ss(VDET
p7766
VNP|<NPP-NC>
p7767
tp7768
(dp7769
VNP
p7770
F7.000840100812098e-05
ss(VVN
p7771
VSrel|<VPinf-NP>
p7772
tp7773
(dp7774
VSrel|<VN-VPinf>
p7775
F0.07407407407407407
ss(VADV
p7776
VSENT|<AdP-PONCT>
p7777
tp7778
(dp7779
g6671
F0.3333333333333333
ss(VADV
p7780
VVPinf|<PONCT-P>
p7781
tp7782
(dp7783
VVPinf|<ADV-PONCT>
p7784
F0.2
ss(g232
g2499
tp7785
(dp7786
VVN
p7787
F0.00022187708009762592
ss(VCLS
p7788
VVS
p7789
tp7790
(dp7791
VVN
p7792
F0.0015531395606833815
ss(VCC
p7793
g7611
tp7794
(dp7795
VCOORD
p7796
F0.002509410288582183
ss(VDETWH
p7797
VNP|<NC-AP>
p7798
tp7799
(dp7800
VNP
p7801
F7.000840100812098e-05
ss(VPONCT
p7802
VSENT|<VN-Ssub>
p7803
tp7804
(dp7805
VSENT|<PONCT-VN>
p7806
F0.04642857142857143
ss(VSint
p7807
VSENT|<PONCT-NP>
p7808
tp7809
(dp7810
VSENT|<Sint-PONCT>
p7811
F0.024096385542168676
ss(VET
p7812
VSrel
p7813
tp7814
(dp7815
g2516
F1.0
ss(VPONCT
p7816
g4347
tp7817
(dp7818
VVPinf|<PONCT-Ssub>
p7819
F0.25
ss(VAdP
p7820
VSENT|<PP-PONCT>
p7821
tp7822
(dp7823
g6401
F0.8571428571428571
ss(VPP
p7824
g669
tp7825
(dp7826
VSrel|<PP-PONCT>
p7827
F0.05263157894736842
ss(VPP
p7828
g2214
tp7829
(dp7830
g7181
F0.2727272727272727
ss(VDET
p7831
VNPP
p7832
tp7833
(dp7834
VNP
p7835
F0.01638196583590031
sVNP|<DET-NPP>
p7836
F0.3333333333333333
ss(VADVWH
p7837
VVN
p7838
tp7839
(dp7840
VSsub
p7841
F0.0017301038062283738
ss(VAP
p7842
g5434
tp7843
(dp7844
VNP|<AP-PONCT>
p7845
F0.006289308176100629
ss(g2458
VNP
p7846
tp7847
(dp7848
g6768
F0.5
sg4464
F1.0
sg1939
F1.0
sVSint|<AdP-NP>
p7849
F0.5
ss(VVPP
p7850
VVPpart|<ADV-ADV>
p7851
tp7852
(dp7853
VVPpart
p7854
F0.0010869565217391304
ss(VAP
p7855
VNP|<PONCT-Srel>
p7856
tp7857
(dp7858
VNP|<AP-PONCT>
p7859
F0.03773584905660377
ss(VNP
p7860
VPP|<COORD-COORD>
p7861
tp7862
(dp7863
g3560
F0.14150943396226415
ss(VVN
p7864
g1565
tp7865
(dp7866
VSrel|<VN-Ssub>
p7867
F0.14285714285714285
ss(VADV
p7868
g1250
tp7869
(dp7870
VVPpart
p7871
F0.0010869565217391304
ss(VPONCT
p7872
VNP|<NC-ET>
p7873
tp7874
(dp7875
g1572
F0.0425531914893617
ss(VADV
p7876
VVS
p7877
tp7878
(dp7879
VVN
p7880
F0.0008875083203905037
ss(VADJ
p7881
g780
tp7882
(dp7883
VAP|<ADJ-PP>
p7884
F0.05263157894736842
ss(VDET
p7885
VNC
p7886
tp7887
(dp7888
VNP
p7889
F0.15338840660879305
sg3946
F0.45555555555555555
ss(VNP
p7890
VSrel|<PONCT-COORD>
p7891
tp7892
(dp7893
g342
F0.125
ss(VPONCT
p7894
VSENT|<VN-VPpart>
p7895
tp7896
(dp7897
VSENT|<PONCT-VN>
p7898
F0.0035714285714285713
ss(VPONCT
p7899
g3344
tp7900
(dp7901
VAP
p7902
F0.0025343953656770456
sg7025
F0.5
ss(VPP
p7903
VVPinf|<Ssub-PONCT>
p7904
tp7905
(dp7906
VVPinf|<PP-Ssub>
p7907
F0.16666666666666666
ss(VADJ
p7908
VNP|<NC-Srel>
p7909
tp7910
(dp7911
VNP|<ADJ-NC>
p7912
F0.03155818540433925
sVNP
p7913
F0.0002800336040324839
ss(VNP
p7914
VVPinf
p7915
tp7916
(dp7917
g5164
F1.0
sVSrel|<NP-VPinf>
p7918
F1.0
sVCOORD|<NP-VPinf>
p7919
F0.5
sg1094
F0.9285714285714286
sg4320
F1.0
sg7176
F0.9
sVSENT
p7920
F0.0004033884630899556
ss(VNP
p7921
VSint|<PP-PP>
p7922
tp7923
(dp7924
VSint|<NP-PP>
p7925
F0.07142857142857142
ss(g3662
g6879
tp7926
(dp7927
VSENT|<NP-PONCT>
p7928
F0.0011441647597254005
sVSENT
p7929
F0.0004033884630899556
ss(VVPR
p7930
VVN|<PONCT-VPP>
p7931
tp7932
(dp7933
VVN
p7934
F0.00022187708009762592
ss(VADV
p7935
g3601
tp7936
(dp7937
VAP|<ADV-ADJ>
p7938
F0.25
sVAP
p7939
F0.006154960173787111
ss(VPP
p7940
VSsub|<NP-PONCT>
p7941
tp7942
(dp7943
VSsub|<PP-NP>
p7944
F0.14285714285714285
ss(VPONCT
p7945
VADJ
p7946
tp7947
(dp7948
g5271
F0.5
sVCOORD
p7949
F0.0006273525721455458
ss(VSsub
p7950
VSENT|<PONCT-Sint>
p7951
tp7952
(dp7953
VSENT|<Ssub-PONCT>
p7954
F0.004694835680751174
ss(VCC
p7955
VPP
p7956
tp7957
(dp7958
g2375
F0.15244667503136763
ss(VPREF
p7959
VNP|<NPP-AP>
p7960
tp7961
(dp7962
g515
F1.0
ss(VNC
p7963
g1011
tp7964
(dp7965
VNP|<NC-COORD>
p7966
F0.04
ss(VVPinf
p7967
VSENT|<PONCT-VPpart>
p7968
tp7969
(dp7970
VSENT|<VPinf-PONCT>
p7971
F0.004597701149425287
ss(VPP
p7972
g2198
tp7973
(dp7974
VSENT|<PP-PONCT>
p7975
F0.02702702702702703
ss(VAP
p7976
VSENT|<PONCT-VN>
p7977
tp7978
(dp7979
g6876
F0.015384615384615385
sVSENT
p7980
F0.0004033884630899556
ss(g64
g1709
tp7981
(dp7982
VPP
p7983
F0.00012751849018107625
ss(VCLO
p7984
VVN|<CLO-V>
p7985
tp7986
(dp7987
VVN|<CLO-CLO>
p7988
F1.0
sg7143
F0.00022187708009762592
ss(VPONCT
p7989
VSENT|<PONCT-VN>
p7990
tp7991
(dp7992
VSENT|<PONCT-PONCT>
p7993
F0.00909090909090909
ss(VPONCT
p7994
g2708
tp7995
(dp7996
g7016
F0.42913385826771655
sVSENT
p7997
F0.014521984671238403
ss(VADV
p7998
g7918
tp7999
(dp8000
VSrel|<ADV-NP>
p8001
F0.09523809523809523
ss(VPP
p8002
VSENT|<Ssub-VPpart>
p8003
tp8004
(dp8005
VSENT|<PP-Ssub>
p8006
F0.05263157894736842
ss(VVN
p8007
VSENT|<PONCT-ADV>
p8008
tp8009
(dp8010
VSENT|<VN-PONCT>
p8011
F0.0125
sVSENT
p8012
F0.0004033884630899556
ss(VADV
p8013
g175
tp8014
(dp8015
g3759
F0.5
ss(VAP
p8016
g594
tp8017
(dp8018
VSENT|<AP-PONCT>
p8019
F0.03076923076923077
ss(g1293
g1564
tp8020
(dp8021
g2312
F0.1111111111111111
ss(VAP
p8022
g4950
tp8023
(dp8024
VNP|<AP-Srel>
p8025
F0.037037037037037035
ss(VADV
p8026
VVN|<VPP-ADV>
p8027
tp8028
(dp8029
VVN|<ADV-VPP>
p8030
F0.00546448087431694
ss(VNP
p8031
VSrel|<PP-PP>
p8032
tp8033
(dp8034
VSrel|<NP-PP>
p8035
F0.041666666666666664
ss(VADV
p8036
g7757
tp8037
(dp8038
VVPpart
p8039
F0.0010869565217391304
sg7851
F1.0
ss(VVN
p8040
VSrel|<ADV-PONCT>
p8041
tp8042
(dp8043
VSrel|<VN-ADV>
p8044
F0.03389830508474576
ss(VSsub
p8045
VSsub|<PONCT-NP>
p8046
tp8047
(dp8048
g7496
F0.38461538461538464
ss(VPONCT
p8049
VSENT|<NP-COORD>
p8050
tp8051
(dp8052
VSENT|<PONCT-NP>
p8053
F0.0013123359580052493
sVSENT
p8054
F0.0004033884630899556
ss(VAP
p8055
VNP|<NC-ADV>
p8056
tp8057
(dp8058
VNP|<AP-NC>
p8059
F0.045454545454545456
ss(VNP
p8060
VNP
p8061
tp8062
(dp8063
g3937
F0.75
sg6918
F0.8
sg1786
F1.0
sVSENT|<NP-NP>
p8064
F0.08333333333333333
sg5849
F0.6666666666666666
sVPP|<NP-NP>
p8065
F1.0
sg936
F1.0
ss(VNP
p8066
VSrel|<VN-VPpart>
p8067
tp8068
(dp8069
VSrel|<NP-VN>
p8070
F0.019230769230769232
sVSrel
p8071
F0.004301075268817204
ss(VADJ
p8072
VNP|<NC-PP>
p8073
tp8074
(dp8075
VNP|<ADJ-NC>
p8076
F0.21499013806706113
sVNP
p8077
F0.0045505460655278634
ss(VSrel
p8078
VNP|<PONCT-AP>
p8079
tp8080
(dp8081
g2370
F0.058823529411764705
ss(VAP
p8082
VNP|<NC-PP>
p8083
tp8084
(dp8085
VNP|<AP-NC>
p8086
F0.2727272727272727
ss(g64
g8065
tp8087
(dp8088
VPP
p8089
F0.00012751849018107625
ss(VPONCT
p8090
VNP|<NPP-PONCT>
p8091
tp8092
(dp8093
VNP
p8094
F0.00021002520302436292
sVNP|<PONCT-NPP>
p8095
F0.6
ss(VPONCT
p8096
VSrel
p8097
tp8098
(dp8099
g5420
F1.0
sg1524
F1.0
sVPP|<PONCT-Srel>
p8100
F1.0
sVCOORD
p8101
F0.0018820577164366374
sg7139
F0.9
ss(VPONCT
p8102
VVPinf|<P-VN>
p8103
tp8104
(dp8105
g7781
F1.0
ss(VNC
p8106
VNP|<PONCT-COORD>
p8107
tp8108
(dp8109
VNP|<NC-PONCT>
p8110
F0.024242424242424242
ss(VADV
p8111
g7939
tp8112
(dp8113
g1614
F0.25
sVCOORD|<ADV-AP>
p8114
F1.0
sg4659
F1.0
ss(VPONCT
p8115
g5619
tp8116
(dp8117
VNP|<PONCT-VPpart>
p8118
F0.008403361344537815
ss(VCOORD
p8119
VSENT|<PONCT-PP>
p8120
tp8121
(dp8122
VSENT|<COORD-PONCT>
p8123
F0.009708737864077669
ss(VNC
p8124
VNP|<COORD-NC>
p8125
tp8126
(dp8127
VNP
p8128
F0.00014001680201624196
ss(VCLO
p8129
VVPR
p8130
tp8131
(dp8132
VVN
p8133
F0.0017750166407810074
sg596
F1.0
ss(VCOORD
p8134
VNP|<NC-PONCT>
p8135
tp8136
(dp8137
g6042
F0.125
ss(VPONCT
p8138
g4757
tp8139
(dp8140
g3917
F1.0
ss(VVN
p8141
g1837
tp8142
(dp8143
VSrel|<VN-COORD>
p8144
F0.16666666666666666
ss(VDET
p8145
g1022
tp8146
(dp8147
VNP
p8148
F7.000840100812098e-05
ss(g232
VVPP
p8149
tp8150
(dp8151
g3994
F0.9
sg5579
F0.09940093188373642
ss(VVN
p8152
VSsub|<VPinf-AdP>
p8153
tp8154
(dp8155
VSsub|<VN-VPinf>
p8156
F0.01282051282051282
ss(VSrel
p8157
VNP|<PONCT-ADV>
p8158
tp8159
(dp8160
VNP|<Srel-PONCT>
p8161
F0.058823529411764705
ss(VPONCT
p8162
VSENT|<Srel-PONCT>
p8163
tp8164
(dp8165
g5526
F1.0
ss(VVPpart
p8166
VNP|<PONCT-COORD>
p8167
tp8168
(dp8169
VNP|<VPpart-PONCT>
p8170
F0.0392156862745098
ss(VAP
p8171
VVPinf
p8172
tp8173
(dp8174
g5212
F1.0
sVSsub|<AP-VPinf>
p8175
F0.8571428571428571
sg6047
F1.0
ss(VPP
p8176
VSENT|<PONCT-Ssub>
p8177
tp8178
(dp8179
VSENT|<PP-PONCT>
p8180
F0.018018018018018018
sVSENT
p8181
F0.0008067769261799112
ss(VPRO
p8182
VAP
p8183
tp8184
(dp8185
VNP
p8186
F0.00042005040604872583
ss(VPONCT
p8187
VCOORD|<CC-Srel>
p8188
tp8189
(dp8190
VCOORD
p8191
F0.0006273525721455458
ss(VNC
p8192
VNP|<NPP-PP>
p8193
tp8194
(dp8195
VNP
p8196
F0.0005600672080649678
sVNP|<NC-NPP>
p8197
F0.02702702702702703
ss(g7699
g4550
tp8198
(dp8199
g7562
F1.0
ss(VNP
p8200
VNP|<DET-NC>
p8201
tp8202
(dp8203
VNP
p8204
F0.00014001680201624196
ss(VDET
p8205
VNP|<COORD-PONCT>
p8206
tp8207
(dp8208
VNP
p8209
F7.000840100812098e-05
ss(VNC
p8210
VNP|<COORD-COORD>
p8211
tp8212
(dp8213
VNP
p8214
F0.0014001680201624195
sVNP|<NC-COORD>
p8215
F0.13333333333333333
ss(VVPpart
p8216
VNP|<PONCT-VPpart>
p8217
tp8218
(dp8219
VNP|<VPpart-PONCT>
p8220
F0.058823529411764705
ss(VP+D
p8221
VAP
p8222
tp8223
(dp8224
VPP
p8225
F0.00012751849018107625
ss(VNP
p8226
VNP|<PONCT-Sint>
p8227
tp8228
(dp8229
VNP|<NP-PONCT>
p8230
F0.0035087719298245615
ss(g1978
g5432
tp8231
(dp8232
g4179
F1.0
ss(VVN
p8233
g7272
tp8234
(dp8235
VSsub|<VN-COORD>
p8236
F0.14285714285714285
ss(VADV
p8237
g2433
tp8238
(dp8239
VSsub|<ADV-PONCT>
p8240
F0.08333333333333333
ss(VPP
p8241
g2212
tp8242
(dp8243
VVPinf|<PP-PONCT>
p8244
F0.125
ss(VVN
p8245
g215
tp8246
(dp8247
VSint|<VN-AP>
p8248
F0.09090909090909091
ss(VNPP
p8249
VNP|<AP-PP>
p8250
tp8251
(dp8252
VNP
p8253
F0.00014001680201624196
sVNP|<NPP-AP>
p8254
F0.3013698630136986
ss(VET
p8255
g3841
tp8256
(dp8257
g3832
F1.0
ss(g64
VNP|<NC-PP>
p8258
tp8259
(dp8260
VNP|<P-NC>
p8261
F0.13043478260869565
ss(VVN
p8262
g1602
tp8263
(dp8264
VSsub|<VN-PP>
p8265
F0.019417475728155338
ss(VPRO
p8266
VNP|<PONCT-ADV>
p8267
tp8268
(dp8269
VNP
p8270
F7.000840100812098e-05
ss(VADVWH
p8271
VSENT|<NP-PONCT>
p8272
tp8273
(dp8274
VSENT
p8275
F0.0004033884630899556
ss(VADVWH
p8276
VSsub|<NP-VN>
p8277
tp8278
(dp8279
VSsub
p8280
F0.01384083044982699
ss(g64
VNP|<NC-AP>
p8281
tp8282
(dp8283
g4127
F0.13043478260869565
ss(VNP
p8284
g5433
tp8285
(dp8286
VVPinf|<NP-PONCT>
p8287
F0.08571428571428572
ss(VVPP
p8288
VVPpart|<PONCT-NP>
p8289
tp8290
(dp8291
VVPpart
p8292
F0.002173913043478261
ss(VVN
p8293
g7609
tp8294
(dp8295
VSsub|<VN-ADV>
p8296
F0.16883116883116883
ss(VDET
p8297
g2519
tp8298
(dp8299
VNP
p8300
F7.000840100812098e-05
ss(VPP
p8301
VNP|<NPP-PP>
p8302
tp8303
(dp8304
VNP|<PP-NPP>
p8305
F0.05
ss(VADV
p8306
g3072
tp8307
(dp8308
VSint|<ADV-NP>
p8309
F0.0625
ss(VVN
p8310
VSENT|<AP-PP>
p8311
tp8312
(dp8313
g4891
F0.21333333333333335
sVSENT
p8314
F0.0004033884630899556
ss(VCC
p8315
VCOORD|<VN-AdP>
p8316
tp8317
(dp8318
VCOORD
p8319
F0.0012547051442910915
ss(VVPpart
p8320
VNP|<PONCT-NP>
p8321
tp8322
(dp8323
g347
F0.3137254901960784
ss(VNPP
p8324
VNP|<PONCT-VPpart>
p8325
tp8326
(dp8327
VNP
p8328
F0.00014001680201624196
sVNP|<NPP-PONCT>
p8329
F0.08284023668639054
ss(VPONCT
p8330
VSENT|<PP-PP>
p8331
tp8332
(dp8333
VSENT|<PONCT-PP>
p8334
F0.020833333333333332
ss(VVN
p8335
g3018
tp8336
(dp8337
g5262
F0.0010869565217391304
ss(VAP
p8338
VNP|<PP-VPpart>
p8339
tp8340
(dp8341
VNP|<AP-PP>
p8342
F0.016985138004246284
ss(VNPP
p8343
VNC
p8344
tp8345
(dp8346
VNP
p8347
F0.0002800336040324839
sVNP|<NPP-NC>
p8348
F0.42857142857142855
ss(VVPpart
p8349
VNC
p8350
tp8351
(dp8352
g448
F1.0
ss(VCLR
p8353
g6518
tp8354
(dp8355
VVN|<CLR-V>
p8356
F0.017241379310344827
sVVN
p8357
F0.00022187708009762592
ss(VADV
p8358
VNP|<PONCT-NP>
p8359
tp8360
(dp8361
g1465
F0.7142857142857143
ss(VVINF
p8362
VVN|<CLR-VINF>
p8363
tp8364
(dp8365
VVN
p8366
F0.00022187708009762592
ss(VCLS
p8367
g2958
tp8368
(dp8369
VVN
p8370
F0.00044375416019525185
ss(VPP
p8371
VSsub|<VN-PP>
p8372
tp8373
(dp8374
VSsub|<PP-VN>
p8375
F0.2
ss(VAdP
p8376
g4566
tp8377
(dp8378
g4524
F0.0017301038062283738
ss(g64
g2836
tp8379
(dp8380
g2075
F0.014388489208633094
ss(VCOORD
p8381
g2633
tp8382
(dp8383
VNP|<COORD-VPpart>
p8384
F0.3333333333333333
ss(VPONCT
p8385
g7433
tp8386
(dp8387
VVN
p8388
F0.00022187708009762592
ss(VADJ
p8389
g1842
tp8390
(dp8391
VNP
p8392
F0.0003500420050406049
sVNP|<ADJ-NC>
p8393
F0.05325443786982249
ss(VVN
p8394
VSint|<ADV-PONCT>
p8395
tp8396
(dp8397
VSint|<VN-ADV>
p8398
F0.058823529411764705
ss(VVN
p8399
VSrel|<NP-VPinf>
p8400
tp8401
(dp8402
VSrel|<VN-NP>
p8403
F0.015151515151515152
ss(VCC
p8404
g7097
tp8405
(dp8406
VCOORD
p8407
F0.0903387703889586
ss(VNP
p8408
VSENT|<VPinf-PONCT>
p8409
tp8410
(dp8411
VSENT|<NP-VPinf>
p8412
F0.9210526315789473
ss(VNPP
p8413
VNP|<AP-AP>
p8414
tp8415
(dp8416
VNP
p8417
F7.000840100812098e-05
sVNP|<NPP-AP>
p8418
F0.0136986301369863
ss(VPONCT
p8419
VVPpart
p8420
tp8421
(dp8422
VSint|<PONCT-VPpart>
p8423
F1.0
sg3085
F0.5
sVVPpart|<PONCT-VPpart>
p8424
F1.0
sVSENT|<PONCT-VPpart>
p8425
F0.029411764705882353
sg2564
F0.7899159663865546
sVCOORD
p8426
F0.0018820577164366374
sg4344
F0.5
sVSsub|<PONCT-VPpart>
p8427
F0.6666666666666666
ss(VPREF
p8428
VADJ
p8429
tp8430
(dp8431
VAP
p8432
F0.007603186097031137
ss(VVN
p8433
g4220
tp8434
(dp8435
g2786
F0.19736842105263158
sVSENT
p8436
F0.006857603872529245
ss(VNP
p8437
VSsub|<COORD-PONCT>
p8438
tp8439
(dp8440
VSsub|<NP-COORD>
p8441
F0.125
ss(VAdP
p8442
VSENT|<NP-PONCT>
p8443
tp8444
(dp8445
g1420
F0.5
ss(VCLR
p8446
VVS
p8447
tp8448
(dp8449
VVN
p8450
F0.00044375416019525185
ss(VPONCT
p8451
VNP|<NP-NP>
p8452
tp8453
(dp8454
VNP|<PONCT-NP>
p8455
F0.0021551724137931034
ss(VVPinf
p8456
VSrel|<VN-NP>
p8457
tp8458
(dp8459
VSrel|<VPinf-VN>
p8460
F1.0
ss(g64
VNC
p8461
tp8462
(dp8463
VNP
p8464
F7.000840100812098e-05
sVNP|<P-NC>
p8465
F0.6521739130434783
sVPP
p8466
F0.0002550369803621525
ss(VCC
p8467
g5568
tp8468
(dp8469
g986
F0.002509410288582183
ss(g64
g4930
tp8470
(dp8471
VVPinf
p8472
F0.00539568345323741
ss(VSsub
p8473
VSENT|<VPpart-PONCT>
p8474
tp8475
(dp8476
g8003
F1.0
ss(VPONCT
p8477
g565
tp8478
(dp8479
VSENT|<PONCT-ADV>
p8480
F0.42857142857142855
sVSENT
p8481
F0.0008067769261799112
ss(VADVWH
p8482
VNP|<P-NC>
p8483
tp8484
(dp8485
VNP
p8486
F7.000840100812098e-05
ss(VPP
p8487
g8423
tp8488
(dp8489
VSint|<PP-PONCT>
p8490
F0.038461538461538464
ss(VPONCT
p8491
g11
tp8492
(dp8493
VAP|<PONCT-AP>
p8494
F1.0
ss(g6171
VSsub|<PONCT-NP>
p8495
tp8496
(dp8497
g6681
F0.75
ss(VNC
p8498
VADJ
p8499
tp8500
(dp8501
VNP
p8502
F0.0011201344161299357
sVNP|<NC-ADJ>
p8503
F0.42857142857142855
ss(VCLR
p8504
VVINF
p8505
tp8506
(dp8507
g8363
F1.0
sVVN
p8508
F0.012646993565564677
ss(VNP
p8509
g6070
tp8510
(dp8511
VPP|<NP-COORD>
p8512
F0.014150943396226415
ss(VVN
p8513
g1336
tp8514
(dp8515
VSint|<VN-ADV>
p8516
F0.11764705882352941
ss(VDET
p8517
VNP|<NPP-NPP>
p8518
tp8519
(dp8520
VNP
p8521
F0.00042005040604872583
sVNP|<DET-NPP>
p8522
F0.06666666666666667
ss(VVN
p8523
g8175
tp8524
(dp8525
g2640
F0.16279069767441862
ss(VCOORD
p8526
g7193
tp8527
(dp8528
g6526
F0.03468208092485549
ss(VVN
p8529
g7944
tp8530
(dp8531
VSsub|<VN-PP>
p8532
F0.02912621359223301
ss(VPONCT
p8533
g7784
tp8534
(dp8535
VVPinf|<PONCT-ADV>
p8536
F0.6
ss(VNP
p8537
VNP|<PONCT-NP>
p8538
tp8539
(dp8540
VNP|<NP-PONCT>
p8541
F0.19649122807017544
ss(VAP
p8542
g4816
tp8543
(dp8544
g260
F1.0
ss(VCS
p8545
VSsub
p8546
tp8547
(dp8548
VSsub
p8549
F0.0017301038062283738
ss(g64
g5908
tp8550
(dp8551
g8103
F1.0
sg7092
F0.27967625899280574
ss(VNC
p8552
VNP|<PONCT-PONCT>
p8553
tp8554
(dp8555
VNP|<NC-PONCT>
p8556
F0.012121212121212121
ss(VNC
p8557
g5596
tp8558
(dp8559
VNP
p8560
F0.0007700924110893308
sVNP|<NC-PP>
p8561
F0.0219278209227958
ss(VVPP
p8562
g3372
tp8563
(dp8564
g7405
F0.75
ss(VVPinf
p8565
VAdP
p8566
tp8567
(dp8568
g8153
F1.0
ss(VNP
p8569
VSrel|<PONCT-VPpart>
p8570
tp8571
(dp8572
VSrel
p8573
F0.004301075268817204
ss(VADV
p8574
VSENT|<AP-PP>
p8575
tp8576
(dp8577
VSENT|<ADV-AP>
p8578
F0.14285714285714285
ss(g64
g5958
tp8579
(dp8580
VPP
p8581
F0.00012751849018107625
ss(VADV
p8582
VSENT|<Ssub-PONCT>
p8583
tp8584
(dp8585
g656
F1.0
ss(VPP
p8586
g1458
tp8587
(dp8588
g5231
F0.08695652173913043
ss(VAdP
p8589
VSENT|<NP-VPinf>
p8590
tp8591
(dp8592
VSENT|<AdP-NP>
p8593
F0.5
ss(VVPpart
p8594
VSENT|<Ssub-PONCT>
p8595
tp8596
(dp8597
g6583
F1.0
ss(VNP
p8598
VVPinf|<PP-PONCT>
p8599
tp8600
(dp8601
VVPinf|<NP-PP>
p8602
F0.03759398496240601
ss(VVN
p8603
VSENT|<COORD-PONCT>
p8604
tp8605
(dp8606
VSENT
p8607
F0.0004033884630899556
sVSENT|<VN-COORD>
p8608
F0.8666666666666667
ss(VNP
p8609
g3862
tp8610
(dp8611
VAP|<NP-PONCT>
p8612
F0.0625
ss(VADV
p8613
g1559
tp8614
(dp8615
VSint|<ADV-AP>
p8616
F0.25
ss(VNC
p8617
VNP|<NPP-ET>
p8618
tp8619
(dp8620
VNP
p8621
F7.000840100812098e-05
sVNP|<NC-NPP>
p8622
F0.006756756756756757
ss(VPONCT
p8623
VSint
p8624
tp8625
(dp8626
g5125
F0.25
sVSENT|<PONCT-Sint>
p8627
F0.024390243902439025
sg5822
F0.6666666666666666
sVCOORD
p8628
F0.0037641154328732747
sVCOORD|<PONCT-Sint>
p8629
F0.6666666666666666
sg5541
F1.0
ss(g232
g6969
tp8630
(dp8631
g7069
F1.0
sVVN
p8632
F0.0008875083203905037
ss(VNP
p8633
g5492
tp8634
(dp8635
VVPinf|<NP-PONCT>
p8636
F0.02857142857142857
ss(VNP
p8637
g5053
tp8638
(dp8639
VSsub|<NP-PONCT>
p8640
F0.17073170731707318
ss(VPONCT
p8641
g1993
tp8642
(dp8643
VNP
p8644
F7.000840100812098e-05
ss(VVPinf
p8645
VSENT|<PONCT-NP>
p8646
tp8647
(dp8648
VSENT|<VPinf-PONCT>
p8649
F0.009195402298850575
sVSENT
p8650
F0.0028237192416296895
ss(VNPP
p8651
VNP|<PP-Srel>
p8652
tp8653
(dp8654
VNP
p8655
F7.000840100812098e-05
ss(VADV
p8656
VVN|<VS-ADV>
p8657
tp8658
(dp8659
VVN
p8660
F0.00022187708009762592
ss(VVN
p8661
VSENT|<PONCT-Ssub>
p8662
tp8663
(dp8664
VSENT|<VN-PONCT>
p8665
F0.0125
ss(VCOORD
p8666
VAP|<COORD-COORD>
p8667
tp8668
(dp8669
g3859
F0.1
ss(VAdP
p8670
VVPpart
p8671
tp8672
(dp8673
g2394
F1.0
ss(VNC
p8674
VSsub
p8675
tp8676
(dp8677
VNP
p8678
F0.0004900588070568468
sg463
F1.0
ss(VET
p8679
VNP|<NPP-NPP>
p8680
tp8681
(dp8682
VNP|<ET-NPP>
p8683
F0.05555555555555555
ss(VVN
p8684
VSsub|<NP-Srel>
p8685
tp8686
(dp8687
VSsub|<VN-NP>
p8688
F0.0196078431372549
ss(VNP
p8689
VSENT|<PP-PP>
p8690
tp8691
(dp8692
VSENT|<NP-PP>
p8693
F0.13178294573643412
ss(VVS
p8694
VVN|<ADV-VPP>
p8695
tp8696
(dp8697
g8657
F1.0
sVVN
p8698
F0.00044375416019525185
ss(VNP
p8699
g1444
tp8700
(dp8701
g2250
F0.25
ss(VPP
p8702
VVPpart|<PP-PP>
p8703
tp8704
(dp8705
VVPpart|<PP-PP>
p8706
F0.08928571428571429
ss(VADVWH
p8707
g2127
tp8708
(dp8709
VSENT
p8710
F0.0024203307785397336
ss(VAP
p8711
g3618
tp8712
(dp8713
g6613
F0.3584905660377358
ss(VADV
p8714
VVPinf|<PONCT-Ssub>
p8715
tp8716
(dp8717
VVPinf|<ADV-PONCT>
p8718
F0.2
ss(VAdP
p8719
VVN|<VPP-VINF>
p8720
tp8721
(dp8722
VVN|<AdP-VPP>
p8723
F0.09090909090909091
ss(VNP
p8724
VNP|<PP-PONCT>
p8725
tp8726
(dp8727
g3000
F0.36363636363636365
ss(VPONCT
p8728
VNP|<PONCT-PONCT>
p8729
tp8730
(dp8731
VNP|<PONCT-PONCT>
p8732
F0.05555555555555555
ss(VADV
p8733
VSrel|<PONCT-PP>
p8734
tp8735
(dp8736
g8041
F0.5
ss(VADV
p8737
VSENT|<PP-NP>
p8738
tp8739
(dp8740
VSENT|<ADV-PP>
p8741
F0.05172413793103448
ss(VNC
p8742
g7486
tp8743
(dp8744
VNP|<NC-PP>
p8745
F0.00045682960255824577
ss(VVN
p8746
g787
tp8747
(dp8748
VSrel|<VN-PP>
p8749
F0.03937007874015748
ss(VNP
p8750
g7806
tp8751
(dp8752
VSENT|<NP-PONCT>
p8753
F0.057208237986270026
sVSENT
p8754
F0.029043969342476807
ss(VCOORD
p8755
g4554
tp8756
(dp8757
VPP|<COORD-PONCT>
p8758
F0.125
ss(VPP
p8759
VNP|<AP-COORD>
p8760
tp8761
(dp8762
VNP|<PP-AP>
p8763
F0.01639344262295082
ss(VVN
p8764
g2552
tp8765
(dp8766
VSint
p8767
F0.0036363636363636364
sVSint|<VN-AP>
p8768
F0.18181818181818182
ss(VVN
p8769
g956
tp8770
(dp8771
g5853
F0.0036363636363636364
ss(VET
p8772
VNP
p8773
tp8774
(dp8775
VNP
p8776
F7.000840100812098e-05
sg4364
F0.5
ss(VVN
p8777
g2953
tp8778
(dp8779
VSsub|<VN-ADV>
p8780
F0.4025974025974026
ss(VADV
p8781
VNP
p8782
tp8783
(dp8784
VSENT|<ADV-NP>
p8785
F0.009433962264150943
sVSsub|<ADV-NP>
p8786
F0.5294117647058824
sg3137
F0.375
sVAdP
p8787
F0.009523809523809525
sVSrel|<ADV-NP>
p8788
F0.7142857142857143
sg2833
F0.6363636363636364
sg4803
F0.6875
sVPP|<ADV-NP>
p8789
F1.0
sg7479
F1.0
sg806
F0.7272727272727273
ss(VPONCT
p8790
VNP|<COORD-COORD>
p8791
tp8792
(dp8793
g1055
F0.057971014492753624
ss(VSsub
p8794
VSENT|<NP-VN>
p8795
tp8796
(dp8797
VSENT
p8798
F0.0004033884630899556
ss(VCC
p8799
g6552
tp8800
(dp8801
VCOORD
p8802
F0.0006273525721455458
ss(VPONCT
p8803
VNPP
p8804
tp8805
(dp8806
VNP|<PONCT-NPP>
p8807
F0.2
ss(VNC
p8808
VNP|<PONCT-NPP>
p8809
tp8810
(dp8811
VNP|<NC-PONCT>
p8812
F0.006060606060606061
ss(g4961
VAP
p8813
tp8814
(dp8815
g2344
F1.0
ss(VNP
p8816
g7662
tp8817
(dp8818
VNP|<NP-PONCT>
p8819
F0.0035087719298245615
ss(VVN
p8820
g8114
tp8821
(dp8822
VCOORD|<VN-ADV>
p8823
F0.058823529411764705
ss(VAP
p8824
VNP|<PONCT-COORD>
p8825
tp8826
(dp8827
VNP|<AP-PONCT>
p8828
F0.031446540880503145
ss(VVPR
p8829
VPONCT
p8830
tp8831
(dp8832
g7667
F1.0
ss(VCLO
p8833
VVPinf|<VN-NP>
p8834
tp8835
(dp8836
VVPinf
p8837
F0.0008992805755395684
ss(VNP
p8838
VVPpart|<PP-VPpart>
p8839
tp8840
(dp8841
VVPpart|<NP-PP>
p8842
F0.03125
ss(VNC
p8843
g539
tp8844
(dp8845
VNP
p8846
F0.00021002520302436292
sVNP|<NC-AP>
p8847
F0.0173841059602649
ss(VPONCT
p8848
VNP|<PREF-NC>
p8849
tp8850
(dp8851
VNP
p8852
F7.000840100812098e-05
ss(VPONCT
p8853
VAP|<COORD-PONCT>
p8854
tp8855
(dp8856
VAP|<PONCT-COORD>
p8857
F0.2
ss(VPP
p8858
VSsub|<PP-PONCT>
p8859
tp8860
(dp8861
VSsub|<PP-PP>
p8862
F0.07142857142857142
ss(VVN
p8863
VSENT|<VPpart-PONCT>
p8864
tp8865
(dp8866
g7895
F1.0
ss(VPONCT
p8867
VVN|<AdP-VPP>
p8868
tp8869
(dp8870
g6667
F1.0
ss(VCS
p8871
g2671
tp8872
(dp8873
VSsub
p8874
F0.02768166089965398
ss(VVN
p8875
g7555
tp8876
(dp8877
VSrel|<VN-NP>
p8878
F0.007575757575757576
ss(VVPP
p8879
VVPinf
p8880
tp8881
(dp8882
g4174
F1.0
sVVPpart
p8883
F0.014130434782608696
ss(VET
p8884
g63
tp8885
(dp8886
VNP
p8887
F0.0010501260151218146
sVNP|<ET-ET>
p8888
F0.6363636363636364
ss(VADJ
p8889
g8095
tp8890
(dp8891
VNP|<ADJ-PONCT>
p8892
F0.14285714285714285
ss(VADV
p8893
VNP|<P-NP>
p8894
tp8895
(dp8896
VNP
p8897
F7.000840100812098e-05
ss(VPONCT
p8898
g4298
tp8899
(dp8900
g1948
F0.01090909090909091
sg4469
F0.18181818181818182
ss(VPP
p8901
VNC
p8902
tp8903
(dp8904
g6163
F0.42857142857142855
ss(VPONCT
p8905
VSint|<VN-Ssub>
p8906
tp8907
(dp8908
VSint|<PONCT-VN>
p8909
F0.045454545454545456
ss(VADV
p8910
VPRO
p8911
tp8912
(dp8913
VNP
p8914
F7.000840100812098e-05
ss(VADV
p8915
g4239
tp8916
(dp8917
VPP
p8918
F0.0062484060188727365
ss(VPONCT
p8919
VPP|<P-NP>
p8920
tp8921
(dp8922
VPP
p8923
F0.000510073960724305
ss(VDET
p8924
VNP|<NC-ET>
p8925
tp8926
(dp8927
VNP
p8928
F7.000840100812098e-05
ss(VNC
p8929
VNP|<PONCT-NP>
p8930
tp8931
(dp8932
VNP
p8933
F0.0021702604312517503
sg7212
F0.3575757575757576
ss(g6262
VSENT|<PONCT-PP>
p8934
tp8935
(dp8936
VSENT|<VPinf-PONCT>
p8937
F0.01839080459770115
ss(VCOORD
p8938
VSENT|<COORD-COORD>
p8939
tp8940
(dp8941
VSENT|<COORD-COORD>
p8942
F0.2
ss(VNC
p8943
VPONCT
p8944
tp8945
(dp8946
VNP
p8947
F0.00014001680201624196
sVNP|<NC-PONCT>
p8948
F0.13333333333333333
ss(VNC
p8949
VET
p8950
tp8951
(dp8952
VNP
p8953
F7.000840100812098e-05
sg7873
F0.25
ss(VPONCT
p8954
g6327
tp8955
(dp8956
g177
F1.0
ss(VCS
p8957
g710
tp8958
(dp8959
VSsub
p8960
F0.0017301038062283738
ss(VADV
p8961
VSrel|<PONCT-Ssub>
p8962
tp8963
(dp8964
VSrel|<ADV-PONCT>
p8965
F0.25
ss(VADVWH
p8966
g7294
tp8967
(dp8968
VSint
p8969
F0.0036363636363636364
ss(VVN
p8970
g2550
tp8971
(dp8972
VSsub|<VN-AP>
p8973
F0.06976744186046512
ss(VVN
p8974
VSENT|<AP-PONCT>
p8975
tp8976
(dp8977
VSENT|<VN-AP>
p8978
F0.5066666666666667
sVSENT
p8979
F0.002016942315449778
ss(VDET
p8980
g4685
tp8981
(dp8982
VNP
p8983
F0.00021002520302436292
sg7366
F1.0
ss(VPRO
p8984
VSsub
p8985
tp8986
(dp8987
VNP
p8988
F0.00021002520302436292
ss(g64
VNP|<ADJ-NC>
p8989
tp8990
(dp8991
g6057
F1.0
ss(VDET
p8992
g1340
tp8993
(dp8994
g7701
F1.0
ss(VADV
p8995
g3389
tp8996
(dp8997
VSint|<ADV-NP>
p8998
F0.0625
ss(VCS
p8999
g6887
tp9000
(dp9001
VSsub
p9002
F0.005190311418685121
ss(VNC
p9003
VNP|<AP-NC>
p9004
tp9005
(dp9006
VNP
p9007
F0.00014001680201624196
sVNP|<NC-AP>
p9008
F0.0024834437086092716
ss(VPP
p9009
VNP|<Srel-PP>
p9010
tp9011
(dp9012
VNP|<PP-Srel>
p9013
F0.02040816326530612
ss(VPP
p9014
VSsub|<PP-COORD>
p9015
tp9016
(dp9017
VSsub|<PP-PP>
p9018
F0.14285714285714285
ss(VPP
p9019
VSENT|<VN-ADV>
p9020
tp9021
(dp9022
VSENT
p9023
F0.0004033884630899556
ss(VCLO
p9024
VVINF
p9025
tp9026
(dp9027
g6153
F1.0
sg4975
F0.011537608165076547
ss(VNP
p9028
g8460
tp9029
(dp9030
VSrel
p9031
F0.002150537634408602
ss(VPP
p9032
g4557
tp9033
(dp9034
VAP|<PP-PONCT>
p9035
F0.125
ss(VAP
p9036
VNP|<VPpart-COORD>
p9037
tp9038
(dp9039
VNP|<AP-VPpart>
p9040
F0.013888888888888888
ss(VPONCT
p9041
VNP|<PP-AP>
p9042
tp9043
(dp9044
VNP|<PONCT-PP>
p9045
F0.009345794392523364
ss(VPONCT
p9046
VNP|<PONCT-COORD>
p9047
tp9048
(dp9049
VNP|<PONCT-PONCT>
p9050
F0.05555555555555555
ss(VPP
p9051
VSENT|<NP-PONCT>
p9052
tp9053
(dp9054
g3306
F0.9032258064516129
ss(VADV
p9055
VVPinf|<PONCT-VN>
p9056
tp9057
(dp9058
VVPinf|<ADV-PONCT>
p9059
F0.2
ss(VDET
p9060
g3689
tp9061
(dp9062
g5901
F0.1315457854942593
sg1924
F0.3111111111111111
ss(VNP
p9063
g8780
tp9064
(dp9065
VSsub|<NP-VN>
p9066
F0.17454545454545456
ss(VNP
p9067
g7695
tp9068
(dp9069
VSint
p9070
F0.02181818181818182
ss(VSsub
p9071
g7993
tp9072
(dp9073
VSENT|<Ssub-PONCT>
p9074
F0.009389671361502348
ss(VCOORD
p9075
VCOORD
p9076
tp9077
(dp9078
g5025
F1.0
sg4354
F1.0
sg1360
F0.9
sg3369
F1.0
sg4922
F0.4277456647398844
sg7861
F0.717948717948718
sg5556
F0.8
sg3798
F1.0
ss(VADV
p9079
g4446
tp9080
(dp9081
g5288
F0.0004900588070568468
ss(VPONCT
p9082
g949
tp9083
(dp9084
g6009
F0.3076923076923077
ss(VPP
p9085
VVPpart|<VPpart-PONCT>
p9086
tp9087
(dp9088
g8839
F1.0
ss(VVN
p9089
g7250
tp9090
(dp9091
VSENT
p9092
F0.004033884630899556
sVSENT|<VN-PP>
p9093
F0.20380434782608695
ss(VPONCT
p9094
g2407
tp9095
(dp9096
g7672
F1.0
ss(VCC
p9097
VCOORD|<NP-PP>
p9098
tp9099
(dp9100
VCOORD
p9101
F0.0056461731493099125
ss(VNPP
p9102
g3503
tp9103
(dp9104
VNP
p9105
F0.00014001680201624196
ss(VADV
p9106
g1292
tp9107
(dp9108
VVN
p9109
F0.0006656312402928778
ss(VADV
p9110
VVPinf|<P-VN>
p9111
tp9112
(dp9113
VVPinf
p9114
F0.0017985611510791368
ss(VPONCT
p9115
VNP|<PONCT-PP>
p9116
tp9117
(dp9118
VNP|<PONCT-PONCT>
p9119
F0.16666666666666666
ss(VPONCT
p9120
VCOORD|<ADV-NP>
p9121
tp9122
(dp9123
g3808
F0.2
ss(VVN
p9124
VSENT|<NP-PONCT>
p9125
tp9126
(dp9127
VSENT|<VN-NP>
p9128
F0.6078947368421053
sVSENT
p9129
F0.014118596208148447
ss(VVN
p9130
VSsub|<NP-PONCT>
p9131
tp9132
(dp9133
VSsub|<VN-NP>
p9134
F0.058823529411764705
ss(VVPpart
p9135
VNP|<PONCT-PONCT>
p9136
tp9137
(dp9138
VNP|<VPpart-PONCT>
p9139
F0.0196078431372549
ss(VVN
p9140
g839
tp9141
(dp9142
VSrel|<VN-NP>
p9143
F0.015151515151515152
ss(VNC
p9144
g1162
tp9145
(dp9146
VNP|<NC-PP>
p9147
F0.0648698035632709
sVNP
p9148
F0.0014001680201624195
ss(VPREF
p9149
VNP|<NC-PONCT>
p9150
tp9151
(dp9152
g8849
F0.14285714285714285
ss(VVN
p9153
g8788
tp9154
(dp9155
VSrel|<VN-ADV>
p9156
F0.3559322033898305
ss(VNP
p9157
g4393
tp9158
(dp9159
g7003
F0.05714285714285714
ss(g7542
VSENT|<PONCT-COORD>
p9160
tp9161
(dp9162
VSENT|<Ssub-PONCT>
p9163
F0.028169014084507043
ss(VCOORD
p9164
VSENT|<PONCT-PONCT>
p9165
tp9166
(dp9167
VSENT|<COORD-PONCT>
p9168
F0.014563106796116505
ss(VNPP
p9169
VNPP
p9170
tp9171
(dp9172
g2704
F0.020442453094371326
sg2486
F0.7075471698113207
ss(g3622
g4595
tp9173
(dp9174
VSENT|<Ssub-PONCT>
p9175
F0.009389671361502348
ss(VPONCT
p9176
g5401
tp9177
(dp9178
VSENT|<PONCT-COORD>
p9179
F0.014285714285714285
ss(VNPP
p9180
VNP|<AP-COORD>
p9181
tp9182
(dp9183
VNP|<NPP-AP>
p9184
F0.0273972602739726
ss(VET
p9185
VNP|<NC-PONCT>
p9186
tp9187
(dp9188
VNP
p9189
F7.000840100812098e-05
ss(VPP
p9190
VVPinf|<PONCT-PP>
p9191
tp9192
(dp9193
g7470
F0.45
ss(VAP
p9194
VSint|<PONCT-Ssub>
p9195
tp9196
(dp9197
g4315
F0.5
ss(VPRO
p9198
VNP|<PONCT-AP>
p9199
tp9200
(dp9201
VNP
p9202
F7.000840100812098e-05
sg296
F1.0
ss(VNC
p9203
VNP|<ET-NPP>
p9204
tp9205
(dp9206
VNP
p9207
F7.000840100812098e-05
sg8925
F0.25
ss(VDET
p9208
VNP|<ADJ-VPpart>
p9209
tp9210
(dp9211
VNP
p9212
F7.000840100812098e-05
ss(VPONCT
p9213
g8490
tp9214
(dp9215
VSint
p9216
F0.01090909090909091
sg7491
F0.625
ss(VNP
p9217
g8064
tp9218
(dp9219
g5474
F0.08333333333333333
sVSENT
p9220
F0.0008067769261799112
ss(VVPP
p9221
VVN|<VPP-COORD>
p9222
tp9223
(dp9224
VVN|<VPP-VPP>
p9225
F0.006172839506172839
ss(VAP
p9226
VNC
p9227
tp9228
(dp9229
VNP
p9230
F0.00014001680201624196
sg9004
F0.45454545454545453
ss(VNP
p9231
VSrel
p9232
tp9233
(dp9234
g7218
F1.0
sg8685
F1.0
sg2616
F1.0
ss(VDET
p9235
VNP|<AP-NC>
p9236
tp9237
(dp9238
g2239
F0.0011201344161299357
ss(VADVWH
p9239
VSsub|<VN-NP>
p9240
tp9241
(dp9242
VSsub
p9243
F0.0034602076124567475
ss(VPONCT
p9244
g5664
tp9245
(dp9246
g1093
F0.00022187708009762592
ss(VPP
p9247
VSrel|<PONCT-Ssub>
p9248
tp9249
(dp9250
VSrel|<PP-PONCT>
p9251
F0.15789473684210525
ss(VDET
p9252
VPRO
p9253
tp9254
(dp9255
VNP
p9256
F0.0003500420050406049
ss(VDET
p9257
VNP|<P-PRO>
p9258
tp9259
(dp9260
VNP
p9261
F7.000840100812098e-05
ss(VPP
p9262
VNP|<PP-NP>
p9263
tp9264
(dp9265
VNP|<PP-PP>
p9266
F0.005988023952095809
ss(g2876
VPONCT
p9267
tp9268
(dp9269
g6246
F1.0
sg7904
F0.25
sVSENT
p9270
F0.0024203307785397336
sg2070
F0.8309859154929577
ss(VPONCT
p9271
g4601
tp9272
(dp9273
VSint|<PONCT-VN>
p9274
F0.045454545454545456
ss(VVPP
p9275
VVN|<AdP-VPP>
p9276
tp9277
(dp9278
g3706
F1.0
ss(VDET
p9279
VNP|<PONCT-NPP>
p9280
tp9281
(dp9282
VNP
p9283
F7.000840100812098e-05
ss(VCLS
p9284
VVN|<CLO-V>
p9285
tp9286
(dp9287
VVN
p9288
F0.009984468604393166
ss(VAP
p9289
VNP|<VPpart-PONCT>
p9290
tp9291
(dp9292
VNP|<AP-VPpart>
p9293
F0.013888888888888888
ss(VNC
p9294
VNP|<NC-VPpart>
p9295
tp9296
(dp9297
VNP
p9298
F7.000840100812098e-05
sVNP|<NC-NC>
p9299
F0.01990049751243781
ss(VPONCT
p9300
VSENT|<PP-COORD>
p9301
tp9302
(dp9303
VSENT|<PONCT-PP>
p9304
F0.020833333333333332
ss(VNP
p9305
VSENT|<VPinf-PP>
p9306
tp9307
(dp9308
VSENT|<NP-VPinf>
p9309
F0.05263157894736842
ss(VADV
p9310
VSENT|<NP-PP>
p9311
tp9312
(dp9313
VSENT|<ADV-NP>
p9314
F0.18867924528301888
ss(VADV
p9315
VVPR
p9316
tp9317
(dp9318
g5241
F0.0011093854004881295
ss(VDET
p9319
g2857
tp9320
(dp9321
VNP
p9322
F0.009241108933071968
sVNP|<DET-NC>
p9323
F0.022222222222222223
ss(VNP
p9324
VNC
p9325
tp9326
(dp9327
VSENT|<NP-NC>
p9328
F1.0
ss(VPP
p9329
VNP|<PONCT-Srel>
p9330
tp9331
(dp9332
g105
F0.10861423220973783
ss(VADV
p9333
VSENT|<ADV-PONCT>
p9334
tp9335
(dp9336
VSENT
p9337
F0.0004033884630899556
sVSENT|<ADV-ADV>
p9338
F0.07142857142857142
ss(VCLS
p9339
g7988
tp9340
(dp9341
VVN
p9342
F0.00022187708009762592
ss(VPP
p9343
g5785
tp9344
(dp9345
VSint|<PP-PP>
p9346
F0.5555555555555556
ss(VVN
p9347
VVPpart
p9348
tp9349
(dp9350
g8067
F1.0
sVSsub|<VN-VPpart>
p9351
F1.0
ss(VCLO
p9352
VVN|<V-VPP>
p9353
tp9354
(dp9355
VVN|<CLO-V>
p9356
F0.2
sVVN
p9357
F0.005546927002440648
ss(VVN
p9358
VSrel|<PONCT-COORD>
p9359
tp9360
(dp9361
VSrel|<VN-PONCT>
p9362
F0.14285714285714285
ss(VET
p9363
g3054
tp9364
(dp9365
VNP|<ET-NPP>
p9366
F0.05555555555555555
ss(VCC
p9367
g6718
tp9368
(dp9369
VCOORD
p9370
F0.030740276035131745
ss(VVN
p9371
g6504
tp9372
(dp9373
VSint|<VN-VPinf>
p9374
F0.02857142857142857
ss(VCC
p9375
g8629
tp9376
(dp9377
VCOORD
p9378
F0.005018820577164366
ss(VADV
p9379
VVPinf|<NP-PP>
p9380
tp9381
(dp9382
VVPinf|<ADV-NP>
p9383
F0.18181818181818182
ss(VPONCT
p9384
g7334
tp9385
(dp9386
VNP|<PONCT-ADV>
p9387
F0.043478260869565216
ss(VNC
p9388
g3078
tp9389
(dp9390
VNP
p9391
F7.000840100812098e-05
ss(VCLR
p9392
VVN|<V-ADV>
p9393
tp9394
(dp9395
VVN|<CLR-V>
p9396
F0.05172413793103448
sVVN
p9397
F0.0006656312402928778
ss(VPP
p9398
VVPinf|<PP-PP>
p9399
tp9400
(dp9401
VVPinf|<PP-PP>
p9402
F0.07317073170731707
ss(VPP
p9403
VNP|<PP-Srel>
p9404
tp9405
(dp9406
VNP|<PP-PP>
p9407
F0.008982035928143712
ss(VCLO
p9408
VVS
p9409
tp9410
(dp9411
g3359
F0.3333333333333333
ss(VCC
p9412
g7081
tp9413
(dp9414
VCOORD
p9415
F0.012547051442910916
sg8188
F1.0
ss(VPONCT
p9416
g3106
tp9417
(dp9418
VCOORD|<PONCT-NP>
p9419
F0.3076923076923077
ss(VADJ
p9420
VNP|<NC-Ssub>
p9421
tp9422
(dp9423
VNP|<ADJ-NC>
p9424
F0.007889546351084813
sVNP
p9425
F7.000840100812098e-05
ss(VPONCT
p9426
g919
tp9427
(dp9428
g2245
F0.5
ss(VNC
p9429
VNP|<VPpart-COORD>
p9430
tp9431
(dp9432
VNP|<NC-VPpart>
p9433
F0.019417475728155338
ss(VAP
p9434
VSENT|<PONCT-COORD>
p9435
tp9436
(dp9437
VSENT|<AP-PONCT>
p9438
F0.06153846153846154
ss(VPP
p9439
VNP|<VPpart-PONCT>
p9440
tp9441
(dp9442
g7116
F0.038461538461538464
ss(VADV
p9443
VSENT|<NP-Srel>
p9444
tp9445
(dp9446
VSENT|<ADV-NP>
p9447
F0.02830188679245283
ss(VVN
p9448
g3073
tp9449
(dp9450
VSrel|<VN-NP>
p9451
F0.022727272727272728
ss(VAdP
p9452
g4182
tp9453
(dp9454
VSint|<AdP-PONCT>
p9455
F0.5
ss(VPONCT
p9456
g3114
tp9457
(dp9458
g7754
F0.3
ss(VNP
p9459
g4807
tp9460
(dp9461
VSint|<NP-VN>
p9462
F0.16666666666666666
sg7504
F0.025454545454545455
ss(VAP
p9463
VSENT|<PONCT-PP>
p9464
tp9465
(dp9466
VSENT|<AP-PONCT>
p9467
F0.046153846153846156
ss(VCOORD
p9468
VNP|<PONCT-NC>
p9469
tp9470
(dp9471
g8206
F0.027777777777777776
ss(VVN
p9472
g3987
tp9473
(dp9474
g5062
F0.06666666666666667
ss(VVN
p9475
g2459
tp9476
(dp9477
VVPinf
p9478
F0.0008992805755395684
ss(VPP
p9479
g4336
tp9480
(dp9481
VSENT|<PP-PONCT>
p9482
F0.003003003003003003
sVSENT
p9483
F0.0004033884630899556
ss(VAdP
p9484
VVPP
p9485
tp9486
(dp9487
g7412
F0.9090909090909091
ss(VVN
p9488
g3278
tp9489
(dp9490
VSsub|<VN-NP>
p9491
F0.006535947712418301
ss(g64
g2979
tp9492
(dp9493
g3848
F0.0056108135679673555
sg3005
F1.0
ss(VVN
p9494
VSint|<VPinf-Ssub>
p9495
tp9496
(dp9497
g4967
F0.007272727272727273
sg3291
F0.05714285714285714
ss(VAP
p9498
VNP|<AP-PP>
p9499
tp9500
(dp9501
VNP|<AP-AP>
p9502
F0.13414634146341464
ss(VCLR
p9503
VVN|<VPR-ADV>
p9504
tp9505
(dp9506
VVN
p9507
F0.00022187708009762592
ss(VVPpart
p9508
VPONCT
p9509
tp9510
(dp9511
g2430
F1.0
sVNP|<VPpart-PONCT>
p9512
F0.27450980392156865
sg1222
F1.0
sVSENT|<VPpart-PONCT>
p9513
F0.8181818181818182
sVSENT
p9514
F0.002016942315449778
ss(VAP
p9515
VSsub|<VPinf-Ssub>
p9516
tp9517
(dp9518
VSsub|<AP-VPinf>
p9519
F0.14285714285714285
ss(VVN
p9520
g6094
tp9521
(dp9522
VVPinf
p9523
F0.0017985611510791368
ss(VPREF
p9524
VNP|<ADJ-NPP>
p9525
tp9526
(dp9527
g5746
F1.0
ss(VADJ
p9528
g5592
tp9529
(dp9530
VAP
p9531
F0.0010861694424330196
ss(VADV
p9532
VSint|<PONCT-VN>
p9533
tp9534
(dp9535
VSint
p9536
F0.0036363636363636364
sVSint|<ADV-PONCT>
p9537
F0.5
ss(VPP
p9538
g8427
tp9539
(dp9540
VSsub|<PP-PONCT>
p9541
F0.023255813953488372
ss(g64
g8536
tp9542
(dp9543
VVPinf
p9544
F0.0017985611510791368
ss(VPONCT
p9545
g8753
tp9546
(dp9547
VSENT|<PONCT-NP>
p9548
F0.48031496062992124
sVSENT
p9549
F0.04759983864461476
ss(g7152
VVPpart|<PP-PP>
p9550
tp9551
(dp9552
VVPpart
p9553
F0.0010869565217391304
ss(VPP
p9554
VNP|<PP-PP>
p9555
tp9556
(dp9557
VNP|<PP-PP>
p9558
F0.059880239520958084
ss(VPROREL
p9559
g5910
tp9560
(dp9561
VNP
p9562
F7.000840100812098e-05
ss(VADV
p9563
g7056
tp9564
(dp9565
VVN
p9566
F0.0006656312402928778
ss(VDET
p9567
g3768
tp9568
(dp9569
VNP
p9570
F0.0024502940352842343
sVNP|<DET-NPP>
p9571
F0.06666666666666667
ss(VADJ
p9572
g2337
tp9573
(dp9574
VAP
p9575
F0.0003620564808110065
ss(VNP
p9576
VSENT|<PONCT-NPP>
p9577
tp9578
(dp9579
VSENT|<NP-PONCT>
p9580
F0.0011441647597254005
ss(VVINF
p9581
VVN|<PONCT-ADV>
p9582
tp9583
(dp9584
VVN
p9585
F0.00022187708009762592
ss(VADVWH
p9586
VSsub|<NP-PONCT>
p9587
tp9588
(dp9589
VSsub
p9590
F0.0034602076124567475
ss(VCLS
p9591
VVN|<VS-ADV>
p9592
tp9593
(dp9594
VVN
p9595
F0.00022187708009762592
ss(VNP
p9596
g410
tp9597
(dp9598
VSsub|<NP-VN>
p9599
F0.01090909090909091
ss(VVPinf
p9600
VNP
p9601
tp9602
(dp9603
g7144
F0.6666666666666666
sg7772
F0.75
ss(VPONCT
p9604
VPP|<COORD-PONCT>
p9605
tp9606
(dp9607
VPP|<PONCT-COORD>
p9608
F0.05714285714285714
ss(VADV
p9609
VSENT|<VPinf-PP>
p9610
tp9611
(dp9612
VSENT|<ADV-VPinf>
p9613
F0.0273972602739726
ss(VPONCT
p9614
g9328
tp9615
(dp9616
VSENT|<PONCT-NP>
p9617
F0.0013123359580052493
ss(VNP
p9618
g1596
tp9619
(dp9620
g855
F0.047311827956989246
ss(VNP
p9621
g9351
tp9622
(dp9623
VSsub|<NP-VN>
p9624
F0.0036363636363636364
ss(VPONCT
p9625
VCOORD|<VN-NP>
p9626
tp9627
(dp9628
g5859
F0.6666666666666666
ss(VADJ
p9629
g8197
tp9630
(dp9631
VNP|<ADJ-NC>
p9632
F0.0019723865877712033
sg1054
F0.00014001680201624196
ss(VAP
p9633
VVPpart
p9634
tp9635
(dp9636
g5835
F0.9305555555555556
ss(VCLO
p9637
VVN|<VS-VPP>
p9638
tp9639
(dp9640
g7185
F0.6666666666666666
ss(VADV
p9641
VSENT|<VN-NP>
p9642
tp9643
(dp9644
VSENT
p9645
F0.0012101653892698668
ss(VADJ
p9646
VNP|<COORD-PONCT>
p9647
tp9648
(dp9649
g651
F1.0
ss(VPONCT
p9650
VSrel|<VN-VPinf>
p9651
tp9652
(dp9653
g7592
F0.1
ss(VVN
p9654
g8412
tp9655
(dp9656
VSENT|<VN-NP>
p9657
F0.060526315789473685
sVSENT
p9658
F0.002016942315449778
ss(VVPpart
p9659
VNP|<PONCT-VPinf>
p9660
tp9661
(dp9662
VNP|<VPpart-PONCT>
p9663
F0.0196078431372549
ss(VSint
p9664
VCOORD|<PONCT-PP>
p9665
tp9666
(dp9667
VCOORD|<Sint-PONCT>
p9668
F0.25
ss(VAP
p9669
g330
tp9670
(dp9671
VNP|<AP-PONCT>
p9672
F0.018867924528301886
ss(VNP
p9673
VSENT|<PP-COORD>
p9674
tp9675
(dp9676
VSENT|<NP-PP>
p9677
F0.05426356589147287
ss(g64
g7889
tp9678
(dp9679
g5158
F0.7569497577148686
sg8894
F0.5
sg3484
F0.7971014492753623
ss(VDET
p9680
g7246
tp9681
(dp9682
VNP
p9683
F0.0007000840100812098
ss(VVN
p9684
VCOORD|<AdP-PONCT>
p9685
tp9686
(dp9687
g8316
F0.5
ss(g64
g3853
tp9688
(dp9689
VPP
p9690
F0.0022953328232593728
ss(VVN
p9691
g4517
tp9692
(dp9693
VSsub|<VN-ADV>
p9694
F0.1038961038961039
ss(VNP
p9695
VVPinf|<PONCT-ADV>
p9696
tp9697
(dp9698
VVPinf|<NP-PONCT>
p9699
F0.02857142857142857
ss(VPP
p9700
VNPP
p9701
tp9702
(dp9703
VNP|<PP-NPP>
p9704
F0.05
ss(VPP
p9705
VSENT|<Ssub-COORD>
p9706
tp9707
(dp9708
VSENT|<PP-Ssub>
p9709
F0.05263157894736842
ss(VVPpart
p9710
g4929
tp9711
(dp9712
g795
F1.0
ss(VAdP
p9713
VPONCT
p9714
tp9715
(dp9716
g1231
F0.7142857142857143
ss(VSsub
p9717
VSENT|<VN-NP>
p9718
tp9719
(dp9720
g3146
F1.0
ss(VADJWH
p9721
VNP|<ADJ-NC>
p9722
tp9723
(dp9724
VNP
p9725
F7.000840100812098e-05
ss(VADV
p9726
g7604
tp9727
(dp9728
VNP
p9729
F0.00014001680201624196
ss(VDET
p9730
g1413
tp9731
(dp9732
VNP
p9733
F7.000840100812098e-05
ss(VVN
p9734
g6335
tp9735
(dp9736
g321
F0.32673267326732675
sVSENT
p9737
F0.01290843081887858
ss(g3229
VNP|<PP-PONCT>
p9738
tp9739
(dp9740
g9010
F0.3333333333333333
ss(VCS
p9741
VADV
p9742
tp9743
(dp9744
VSsub
p9745
F0.0017301038062283738
ss(VVPinf
p9746
VSENT|<PP-Ssub>
p9747
tp9748
(dp9749
VSENT|<VPinf-PP>
p9750
F0.09090909090909091
ss(VPP
p9751
VCOORD|<PONCT-NP>
p9752
tp9753
(dp9754
VCOORD|<PP-PONCT>
p9755
F0.3333333333333333
ss(VADV
p9756
VVINF
p9757
tp9758
(dp9759
g4999
F1.0
sg5230
F0.0015531395606833815
ss(VPREF
p9760
VNP|<NC-PP>
p9761
tp9762
(dp9763
VNP
p9764
F0.0004900588070568468
sg7587
F0.42857142857142855
ss(VCOORD
p9765
g8100
tp9766
(dp9767
VPP|<COORD-PONCT>
p9768
F0.125
ss(VPONCT
p9769
VPP|<P+D-NP>
p9770
tp9771
(dp9772
VPP
p9773
F0.00012751849018107625
ss(VSsub
p9774
VSENT|<PONCT-NP>
p9775
tp9776
(dp9777
VSENT
p9778
F0.008471157724889069
sVSENT|<Ssub-PONCT>
p9779
F0.04225352112676056
ss(VVN
p9780
g5431
tp9781
(dp9782
VCOORD|<VN-PONCT>
p9783
F0.5
ss(VPONCT
p9784
g1304
tp9785
(dp9786
g9577
F1.0
ss(VPP
p9787
VNP|<AP-PONCT>
p9788
tp9789
(dp9790
VNP|<PP-AP>
p9791
F0.03278688524590164
ss(g232
g674
tp9792
(dp9793
VVN|<V-ADV>
p9794
F0.05102040816326531
sVVN
p9795
F0.00022187708009762592
ss(VAP
p9796
VNP|<COORD-AP>
p9797
tp9798
(dp9799
g895
F0.027777777777777776
ss(VPP
p9800
g4555
tp9801
(dp9802
VSrel|<PP-PONCT>
p9803
F0.05263157894736842
ss(VSint
p9804
VSENT|<PONCT-AP>
p9805
tp9806
(dp9807
VSENT|<Sint-PONCT>
p9808
F0.012048192771084338
ss(VAP
p9809
VSENT|<VN-NP>
p9810
tp9811
(dp9812
VSENT
p9813
F0.003227107704719645
ss(VVN
p9814
VSENT|<PONCT-Srel>
p9815
tp9816
(dp9817
VSENT|<VN-PONCT>
p9818
F0.0125
ss(VADV
p9819
g4499
tp9820
(dp9821
VNP
p9822
F7.000840100812098e-05
ss(g64
g2157
tp9823
(dp9824
VVPinf
p9825
F0.0035971223021582736
ss(VPONCT
p9826
g2080
tp9827
(dp9828
g7281
F0.5
ss(VVN
p9829
g1535
tp9830
(dp9831
VSENT
p9832
F0.0016135538523598225
sVSENT|<VN-AP>
p9833
F0.05333333333333334
ss(VVN
p9834
g6547
tp9835
(dp9836
VVPinf|<VN-AdP>
p9837
F0.2
ss(VPP
p9838
VNP|<PONCT-VPinf>
p9839
tp9840
(dp9841
g6177
F0.011235955056179775
ss(g232
VVN|<VPP-ADV>
p9842
tp9843
(dp9844
VVN|<V-VPP>
p9845
F0.008695652173913044
sVVN
p9846
F0.0008875083203905037
ss(g4512
VSENT|<PP-PP>
p9847
tp9848
(dp9849
g8311
F0.19047619047619047
ss(VADJ
p9850
g8494
tp9851
(dp9852
VAP
p9853
F0.000724112961622013
ss(VPP
p9854
g2469
tp9855
(dp9856
g2511
F0.06976744186046512
ss(VADJ
p9857
VADV
p9858
tp9859
(dp9860
VAP
p9861
F0.0003620564808110065
ss(VNP
p9862
g1517
tp9863
(dp9864
VSENT|<NP-PP>
p9865
F0.007751937984496124
sVSENT
p9866
F0.0012101653892698668
ss(VPONCT
p9867
VSsub|<PONCT-PP>
p9868
tp9869
(dp9870
g7632
F0.5
ss(VADJ
p9871
VNP|<PONCT-Sint>
p9872
tp9873
(dp9874
VNP
p9875
F7.000840100812098e-05
ss(VPP
p9876
VCOORD|<PP-PP>
p9877
tp9878
(dp9879
g6539
F0.09090909090909091
ss(VDET
p9880
g2785
tp9881
(dp9882
VNP
p9883
F0.0011901428171380566
sg4519
F0.2
ss(VVPP
p9884
g5566
tp9885
(dp9886
g1519
F0.05217391304347826
ss(VVN
p9887
VCOORD|<NP-PP>
p9888
tp9889
(dp9890
VCOORD|<VN-NP>
p9891
F0.2222222222222222
ss(VAP
p9892
VNP|<PP-AP>
p9893
tp9894
(dp9895
VNP|<AP-PP>
p9896
F0.0021231422505307855
ss(VCOORD
p9897
VNP|<PONCT-NP>
p9898
tp9899
(dp9900
g5800
F0.2222222222222222
ss(VPP
p9901
VSrel|<VN-NP>
p9902
tp9903
(dp9904
VSrel
p9905
F0.03870967741935484
ss(VNP
p9906
g8942
tp9907
(dp9908
VSENT|<NP-COORD>
p9909
F0.02631578947368421
ss(g3259
VSint|<PONCT-VPpart>
p9910
tp9911
(dp9912
g4542
F0.25
ss(VVPpart
p9913
g8424
tp9914
(dp9915
g9086
F1.0
ss(VVN
p9916
g3586
tp9917
(dp9918
VSrel|<VN-AP>
p9919
F0.06666666666666667
ss(VVPinf
p9920
g1794
tp9921
(dp9922
g7154
F1.0
sg9495
F1.0
sg4856
F1.0
ss(VADV
p9923
VSENT|<NP-VPpart>
p9924
tp9925
(dp9926
VSENT|<ADV-NP>
p9927
F0.009433962264150943
ss(VADJ
p9928
VVPpart|<VPP-VPinf>
p9929
tp9930
(dp9931
VVPpart
p9932
F0.0010869565217391304
ss(VNP
p9933
g6200
tp9934
(dp9935
g4101
F0.17647058823529413
ss(VVPP
p9936
VVPpart|<ADV-VPinf>
p9937
tp9938
(dp9939
VVPpart
p9940
F0.0010869565217391304
ss(VADV
p9941
VNC
p9942
tp9943
(dp9944
VNP
p9945
F0.00014001680201624196
ss(VVN
p9946
g9175
tp9947
(dp9948
g7803
F0.8703703703703703
sVSENT
p9949
F0.014118596208148447
ss(VCOORD
p9950
VSENT|<PONCT-COORD>
p9951
tp9952
(dp9953
VSENT|<COORD-PONCT>
p9954
F0.014563106796116505
sVSENT
p9955
F0.0004033884630899556
ss(VNC
p9956
g1418
tp9957
(dp9958
VNP
p9959
F0.00014001680201624196
sVNP|<NC-PONCT>
p9960
F0.10303030303030303
ss(VCOORD
p9961
VSENT|<PONCT-Sint>
p9962
tp9963
(dp9964
VSENT|<COORD-PONCT>
p9965
F0.02912621359223301
ss(VAP
p9966
g960
tp9967
(dp9968
g4937
F0.5
ss(VDET
p9969
g7687
tp9970
(dp9971
g9459
F0.004410529263511621
sg722
F0.2
ss(VVN
p9972
g7494
tp9973
(dp9974
VSint|<VN-PP>
p9975
F0.14285714285714285
ss(VCOORD
p9976
g934
tp9977
(dp9978
g8211
F0.04046242774566474
ss(VPONCT
p9979
g9462
tp9980
(dp9981
g38
F0.5454545454545454
sg5911
F0.014545454545454545
ss(VNC
p9982
g7836
tp9983
(dp9984
VNP
p9985
F0.00021002520302436292
sg1848
F1.0
ss(VNP
p9986
g2383
tp9987
(dp9988
VSsub|<NP-PONCT>
p9989
F0.14634146341463414
ss(VVPP
p9990
VVN|<ADV-VPP>
p9991
tp9992
(dp9993
g9842
F1.0
ss(VADV
p9994
g5659
tp9995
(dp9996
VSENT|<ADV-NP>
p9997
F0.009433962264150943
ss(VVN
p9998
g6000
tp9999
(dp10000
VSENT|<VN-ADV>
p10001
F0.009900990099009901
ss(VPONCT
p10002
g3239
tp10003
(dp10004
VNP|<PONCT-COORD>
p10005
F0.014492753623188406
ss(VNC
p10006
VAdP
p10007
tp10008
(dp10009
g5689
F1.0
ss(VADJ
p10010
VNP
p10011
tp10012
(dp10013
VAP
p10014
F0.0003620564808110065
ss(VDET
p10015
g4131
tp10016
(dp10017
VNP
p10018
F7.000840100812098e-05
ss(VADV
p10019
VSint|<VN-NP>
p10020
tp10021
(dp10022
g2649
F1.0
ss(VCLS
p10023
g7325
tp10024
(dp10025
VVN
p10026
F0.00022187708009762592
ss(VPONCT
p10027
VVN|<ADV-VPP>
p10028
tp10029
(dp10030
g9582
F1.0
ss(g3008
g6150
tp10031
(dp10032
g4592
F0.015015015015015015
ss(g64
g8789
tp10033
(dp10034
VPP
p10035
F0.0008926294312675338
ss(g9478
VSENT|<PONCT-Sint>
p10036
tp10037
(dp10038
VSENT|<VPinf-PONCT>
p10039
F0.011494252873563218
sVSENT
p10040
F0.0004033884630899556
ss(VCLS
p10041
g2794
tp10042
(dp10043
VVN
p10044
F0.00022187708009762592
ss(VVN
p10045
g9803
tp10046
(dp10047
VSrel|<VN-PP>
p10048
F0.031496062992125984
ss(VADV
p10049
g1917
tp10050
(dp10051
VVPpart
p10052
F0.0010869565217391304
ss(VVN
p10053
g4724
tp10054
(dp10055
VCOORD|<VN-NP>
p10056
F0.1111111111111111
ss(VADV
p10057
VSint|<PONCT-PP>
p10058
tp10059
(dp10060
VSint|<ADV-PONCT>
p10061
F0.16666666666666666
ss(VADJ
p10062
g6704
tp10063
(dp10064
VAP
p10065
F0.0003620564808110065
ss(VVN
p10066
g1006
tp10067
(dp10068
VSENT|<VN-AdP>
p10069
F0.3333333333333333
sVSENT
p10070
F0.0004033884630899556
ss(VNP
p10071
VSENT|<Sint-VN>
p10072
tp10073
(dp10074
VSENT
p10075
F0.0008067769261799112
ss(VSsub
p10076
VSENT|<PONCT-VPpart>
p10077
tp10078
(dp10079
VSENT|<Ssub-PONCT>
p10080
F0.009389671361502348
ss(VNP
p10081
VNP|<NP-PONCT>
p10082
tp10083
(dp10084
g8452
F0.16666666666666666
ss(VNP
p10085
g4100
tp10086
(dp10087
g2673
F0.13454545454545455
sVSsub
p10088
F0.0017301038062283738
ss(VPP
p10089
VSENT|<VPinf-COORD>
p10090
tp10091
(dp10092
VSENT|<PP-VPinf>
p10093
F0.038461538461538464
ss(VADV
p10094
VSrel|<PP-PONCT>
p10095
tp10096
(dp10097
VSrel|<ADV-PP>
p10098
F0.1111111111111111
ss(VNP
p10099
VSENT|<PONCT-NP>
p10100
tp10101
(dp10102
VSENT
p10103
F0.03307785397337636
sVSENT|<NP-PONCT>
p10104
F0.3009153318077803
ss(VVN
p10105
g4013
tp10106
(dp10107
VSsub|<VN-PP>
p10108
F0.009708737864077669
ss(VADV
p10109
g7415
tp10110
(dp10111
VVN
p10112
F0.00044375416019525185
ss(VCC
p10113
g5862
tp10114
(dp10115
VCOORD
p10116
F0.0006273525721455458
ss(g9370
VPONCT
p10117
tp10118
(dp10119
g9605
F0.125
sg8854
F1.0
sg5159
F0.883495145631068
sg6971
F0.25
sg2466
F1.0
sVSENT
p10120
F0.01290843081887858
ss(VVPP
p10121
VVPP
p10122
tp10123
(dp10124
g2924
F0.9938271604938271
ss(VPP
p10125
VNP|<VPpart-PP>
p10126
tp10127
(dp10128
VNP|<PP-VPpart>
p10129
F0.01282051282051282
ss(VSint
p10130
g10069
tp10131
(dp10132
g10072
F0.5
ss(g64
VADV
p10133
tp10134
(dp10135
VPP
p10136
F0.000510073960724305
ss(VPP
p10137
VSsub|<VPinf-PONCT>
p10138
tp10139
(dp10140
g2085
F0.3333333333333333
ss(VNC
p10141
g1628
tp10142
(dp10143
VNP
p10144
F7.000840100812098e-05
sVNP|<NC-COORD>
p10145
F0.006666666666666667
ss(VVN
p10146
g6219
tp10147
(dp10148
VSENT|<VN-ADV>
p10149
F0.0594059405940594
sVSENT
p10150
F0.0008067769261799112
ss(VDET
p10151
g3732
tp10152
(dp10153
VNP
p10154
F0.00014001680201624196
sg5464
F1.0
ss(VDET
p10155
g10005
tp10156
(dp10157
VNP
p10158
F7.000840100812098e-05
ss.