c__builtin__
set
p0
((lp1
VNP|<AP-VPinf>
p2
aVAdP|<PONCT-Srel>
p3
aVAP|<PP-VPinf>
p4
aVSENT|<PP-COORD>
p5
aVAdP|<PONCT-PP>
p6
aVSsub|<VN-ADV>
p7
aVSint|<AdP-PONCT>
p8
aVSENT|<ADV-VPpart>
p9
aVSENT|<PONCT-NP>
p10
aVSsub|<AP-Ssub>
p11
aVVPinf|<COORD-COORD>
p12
aVNP|<DET-ADJ>
p13
aVSint|<VN-NP>
p14
aVSsub|<VPinf-AdP>
p15
aVVPpart|<VPP-VPinf>
p16
aVSsub|<NP-VPinf>
p17
aVNP|<VPpart-NC>
p18
aVVN|<V-COORD>
p19
aVNP|<P-NC>
p20
aVNP|<NC-NP>
p21
aVSsub|<VPinf-PONCT>
p22
aVAP|<PONCT-VPpart>
p23
aVVPinf|<PONCT-Ssub>
p24
aVAP|<PP-PP>
p25
aVNP|<NPP-NPP>
p26
aVSsub|<CS-NP>
p27
aVVPpart|<VPinf-PP>
p28
aVVPinf|<AP-NP>
p29
aVSrel|<VN-COORD>
p30
aVCOORD|<ADV-PONCT>
p31
aVCOORD|<AP-Ssub>
p32
aVCOORD|<ADV-Ssub>
p33
aVVPpart|<PONCT-ADV>
p34
aVAdP|<DET-ADV>
p35
aVSENT|<AP-PONCT>
p36
aVSsub|<VPinf-NP>
p37
aVNP|<PONCT-ADV>
p38
aVVPpart|<VPP-AP>
p39
aVVPpart
p40
aVVN|<VPP-ADV>
p41
aVSENT|<VN-NP>
p42
aVNP|<COORD-Ssub>
p43
aVSint|<ADV-PP>
p44
aVSENT|<AP-COORD>
p45
aVNP|<PONCT-PP>
p46
aVSsub|<AP-VN>
p47
aVCOORD|<PONCT-VPpart>
p48
aVVPinf|<VN-PP>
p49
aVNP|<DET-PONCT>
p50
aVSsub|<COORD-NP>
p51
aVSENT|<AdP-VPinf>
p52
aVVPpart|<PP-VPpart>
p53
aVSENT|<ADV-AP>
p54
aVSsub|<PP-ADV>
p55
aVVN|<VPR-VPP>
p56
aVNP|<NC-ET>
p57
aVSENT|<VN-AP>
p58
aVNP|<PONCT-ET>
p59
aVAP|<ADJ-Ssub>
p60
aVSsub|<PONCT-VPpart>
p61
aVSint|<COORD-COORD>
p62
aVSsub|<COORD-PONCT>
p63
aVSrel|<NP-NP>
p64
aVSENT|<COORD-Ssub>
p65
aVSENT|<VN-PONCT>
p66
aVNP|<VPpart-Ssub>
p67
aVVPpart|<COORD-COORD>
p68
aVSrel|<ADV-VN>
p69
aVNP|<ET-NPP>
p70
aVAdP|<ADV-PP>
p71
aVVN|<VINF-PONCT>
p72
aVVPinf|<PP-PONCT>
p73
aVVPpart|<PONCT-Sint>
p74
aVNP|<PP-Ssub>
p75
aVVPinf|<VN-AdP>
p76
aVSint|<PONCT-VPinf>
p77
aVCOORD|<VN-Ssub>
p78
aVVPinf|<PP-NP>
p79
aVAP|<ADV-PP>
p80
aVSENT|<PP-Srel>
p81
aVSint|<VN-PP>
p82
aVCOORD|<VN-ADV>
p83
aVSENT|<NP-PONCT>
p84
aVCOORD|<CC-PONCT>
p85
aVSENT|<ADV-Ssub>
p86
aVSint|<PONCT-PP>
p87
aVVN|<V-VPP>
p88
aVVPinf|<AP-PP>
p89
aVVPinf|<PONCT-P>
p90
aVNP|<NPP-COORD>
p91
aVCOORD|<NP-COORD>
p92
aVCOORD|<VN-AP>
p93
aVSrel|<PP-VN>
p94
aVVN|<ADV-V>
p95
aVSint|<AP-PONCT>
p96
aVVPpart|<PP-PONCT>
p97
aVVPinf|<NP-Ssub>
p98
aVNP|<PREF-ADJ>
p99
aVNP|<PP-AP>
p100
aVVPinf|<AdP-PP>
p101
aVSENT|<VPpart-Ssub>
p102
aVCOORD|<VPpart-COORD>
p103
aVSsub|<VN-AP>
p104
aVSsub|<VN-AdP>
p105
aVSsub|<PONCT-NP>
p106
aVNP|<VPinf-COORD>
p107
aVNP|<AP-AP>
p108
aVSrel|<PONCT-NP>
p109
aVSENT|<AP-PP>
p110
aVSint|<AdP-NP>
p111
aVSsub|<NP-Ssub>
p112
aVSint|<ADV-VN>
p113
aVAP|<PP-Ssub>
p114
aVSint|<AP-PP>
p115
aVCOORD|<NP-Sint>
p116
aVSint|<NP-Ssub>
p117
aVNP|<AP-NC>
p118
aVVN|<PP-PONCT>
p119
aVCOORD|<CC-Srel>
p120
aVSENT|<PONCT-Srel>
p121
aVSENT|<PONCT-ET>
p122
aVSENT|<PP-ADV>
p123
aVSrel|<VN-NP>
p124
aVVPinf|<COORD-NP>
p125
aVNP|<ADJ-NPP>
p126
aVVN|<CLR-V>
p127
aVCOORD|<PP-PONCT>
p128
aVAP|<ADJ-PP>
p129
aVPP|<PONCT-PP>
p130
aVNP|<PONCT-NC>
p131
aVSsub|<AdP-NP>
p132
aVNP|<ADJ-PONCT>
p133
aVNP|<NPP-PP>
p134
aVVPinf|<PONCT-PONCT>
p135
aVSrel|<VPinf-VN>
p136
aVSint|<AP-VPinf>
p137
aVPP|<PP-VPinf>
p138
aVNP|<PP-PONCT>
p139
aVSrel|<PP-PP>
p140
aVVN|<CLO-VPR>
p141
aVSENT|<AdP-NP>
p142
aVNP|<NPP-VPpart>
p143
aVVPpart|<PONCT-Srel>
p144
aVNP|<NP-NP>
p145
aVSint|<PONCT-Ssub>
p146
aVSrel|<VPinf-PONCT>
p147
aVVN|<NP-VPP>
p148
aVSsub|<PP-VN>
p149
aVNP|<VN-NP>
p150
aVNP|<AP-COORD>
p151
aVCOORD|<PONCT-Ssub>
p152
aVSrel|<NP-Ssub>
p153
aVVN|<V-AdP>
p154
aVNP|<PRO-COORD>
p155
aVSsub|<VN-PONCT>
p156
aVNP|<PONCT-DET>
p157
aVSsub|<PONCT-PONCT>
p158
aVSrel|<VN-Ssub>
p159
aVCOORD|<AdP-PONCT>
p160
aVVN|<V-VINF>
p161
aVNP|<PRO-PONCT>
p162
aVVN|<AdP-VPP>
p163
aVNP|<ADJ-ADJ>
p164
aVSint|<ADV-PONCT>
p165
aVVPinf|<P-VN>
p166
aVSint|<ADV-ADV>
p167
aVNP|<VPpart-PONCT>
p168
aVSrel|<COORD-PP>
p169
aVSrel|<PONCT-ADV>
p170
aVVPinf|<AdP-NP>
p171
aVSENT|<COORD-PONCT>
p172
aVVPpart|<PONCT-Ssub>
p173
aVVPinf|<VN-ADV>
p174
aVSsub|<COORD-COORD>
p175
aVSrel|<PONCT-Ssub>
p176
aVNP|<ADV-PONCT>
p177
aVPP|<PP-NP>
p178
aVSENT|<VN-COORD>
p179
aVVPinf|<PP-VPinf>
p180
aVSint|<VPinf-Ssub>
p181
aVSrel|<AdP-PONCT>
p182
aVSsub|<VN-PP>
p183
aVNP|<PRO-Srel>
p184
aVNP|<PONCT-Sint>
p185
aVSENT|<VPpart-PONCT>
p186
aVAP|<PONCT-NP>
p187
aVSENT|<NPP-PONCT>
p188
aVSint|<PONCT-VN>
p189
aVVPpart|<VPP-PP>
p190
aVSint|<PP-COORD>
p191
aVCOORD|<NP-VN>
p192
aVNP|<VPpart-VPpart>
p193
aVSsub|<NP-PP>
p194
aVVPpart|<NP-PONCT>
p195
aVSrel|<VN-PP>
p196
aVSint
p197
aVVPpart|<COORD-PP>
p198
aVSENT|<PONCT-ADV>
p199
aVNP|<PP-Srel>
p200
aVNP|<COORD-AP>
p201
aVSrel|<VN-VPinf>
p202
aVSENT|<VN-VPinf>
p203
aVVN|<CLR-VINF>
p204
aVVPpart|<VPP-NP>
p205
aVNP|<PONCT-COORD>
p206
aVVPinf|<PP-COORD>
p207
aVSsub|<PP-NP>
p208
aVSsub|<COORD-AP>
p209
aVNP|<ADV-P>
p210
aVVN|<ADV-CLO>
p211
aVSENT|<Sint-Sint>
p212
aVSint|<VPinf-COORD>
p213
aVSsub|<ADV-PP>
p214
aVSENT|<VPinf-PP>
p215
aVNP|<ADJ-COORD>
p216
aVSrel|<VN-ADV>
p217
aVVPinf|<AP-COORD>
p218
aVVN|<VPR-ADV>
p219
aVVPinf|<AdP-PONCT>
p220
aVCOORD|<AP-ADV>
p221
aVSsub|<PONCT-Ssub>
p222
aVNP|<NC-NC>
p223
aVVN|<VPP-COORD>
p224
aVSENT|<VN-Ssub>
p225
aVVPpart|<NP-COORD>
p226
aVVN|<PP-ADV>
p227
aVNP|<NC-ADV>
p228
aVSsub|<PONCT-COORD>
p229
aVPP|<P-VPpart>
p230
aVVPinf|<PONCT-ADV>
p231
aVVPinf|<NP-AdP>
p232
aVNP|<VPpart-PP>
p233
aVVPinf|<NP-ADV>
p234
aVSrel|<AP-ADV>
p235
aVVN|<V-NP>
p236
aVVPpart|<AdP-NP>
p237
aVVN|<VS-VPP>
p238
aVSsub|<PP-VPinf>
p239
aVNP|<COORD-COORD>
p240
aVCOORD|<VPpart-NP>
p241
aVSENT|<NP-NC>
p242
aVCOORD|<CC-AP>
p243
aVVN|<CLO-VINF>
p244
aVCOORD|<VN-VPinf>
p245
aVSint|<VN-COORD>
p246
aVPP|<PONCT-Srel>
p247
aVSsub|<AP-COORD>
p248
aVVN|<ADV-VS>
p249
aVPP|<NP-PP>
p250
aVCOORD|<ADV-VPinf>
p251
aVNP|<Ssub-COORD>
p252
aVVPinf|<PONCT-NP>
p253
aVVPpart|<VN-VPinf>
p254
aVSENT|<Ssub-NP>
p255
aVSsub|<VN-NP>
p256
aVSint|<VPinf-PONCT>
p257
aVNP|<ET-NC>
p258
aVVPpart|<NP-VPinf>
p259
aVPP|<PONCT-AP>
p260
aVVN
p261
aVSint|<AdP-Ssub>
p262
aVVN|<VINF-VPP>
p263
aVNP|<PP-VPpart>
p264
aVNP|<DET-PRO>
p265
aVSENT|<VPinf-Ssub>
p266
aVSsub
p267
aVAdP|<PONCT-ADV>
p268
aVNP|<ADJ-PP>
p269
aVCOORD|<VPinf-PONCT>
p270
aVSint|<NP-VN>
p271
aVPP|<NP-PONCT>
p272
aVVPinf|<PONCT-VPpart>
p273
aVSsub|<VPinf-COORD>
p274
aVNP|<NPP-Srel>
p275
aVCOORD|<PONCT-ADV>
p276
aVSsub|<ADV-AP>
p277
aVSENT|<VN-ADV>
p278
aVCOORD|<PONCT-PP>
p279
aVVPpart|<PONCT-NP>
p280
aVNP|<PONCT-PONCT>
p281
aVVN|<ADV-VPP>
p282
aVSENT|<PP-VPpart>
p283
aVNP|<PONCT-VPpart>
p284
aVVN|<PONCT-AdP>
p285
aVNP|<NC-PONCT>
p286
aVVPpart|<COORD-NP>
p287
aVSENT|<PONCT-VPpart>
p288
aVSsub|<VN-Ssub>
p289
aVNP|<NP-PONCT>
p290
aVVPinf|<ADV-PP>
p291
aVCOORD|<VN-NP>
p292
aVSint|<Ssub-PONCT>
p293
aVSrel|<PP-PONCT>
p294
aVCOORD|<PP-PP>
p295
aVPP|<NP-Ssub>
p296
aVSsub|<PONCT-VN>
p297
aVVPpart|<AP-PONCT>
p298
aVVPinf|<NP-NP>
p299
aVSint|<PONCT-COORD>
p300
aVSENT|<NP-Srel>
p301
aVVPinf|<VN-Ssub>
p302
aVNP|<ADV-NC>
p303
aVVPinf|<ADV-VN>
p304
aVVN|<VS-ADV>
p305
aVNP|<ADV-Ssub>
p306
aVVN|<CLS-V>
p307
aVNP|<NC-ADJ>
p308
aVAP|<PONCT-ADJ>
p309
aVSsub|<PP-Ssub>
p310
aVAP|<NP-PONCT>
p311
aVVN|<PONCT-ADV>
p312
aVSsub|<AP-PP>
p313
aVSrel|<PP-Ssub>
p314
aVSrel|<ADV-PP>
p315
aVSsub|<ADV-VPinf>
p316
aVVN|<V-Sint>
p317
aVVPinf|<VPpart-PONCT>
p318
aVSENT|<ADV-VPinf>
p319
aVSrel|<COORD-COORD>
p320
aVVPpart|<NP-NP>
p321
aVVPpart|<VPP-ADV>
p322
aVNP|<AP-PP>
p323
aVSENT|<AP-Ssub>
p324
aVNP|<NP-COORD>
p325
aVSENT|<ADV-PONCT>
p326
aVVN|<CLO-V>
p327
aVSrel|<COORD-PONCT>
p328
aVNP|<DET-P>
p329
aVNP|<ET-Srel>
p330
aVCOORD|<NP-PP>
p331
aVAP|<PONCT-AP>
p332
aVNP|<PP-NC>
p333
aVSsub|<ADV-ADV>
p334
aVNP|<NC-Ssub>
p335
aVVN|<ADV-CLR>
p336
aVVPinf|<ADV-COORD>
p337
aVNP|<NC-VPinf>
p338
aVVPinf|<PONCT-VN>
p339
aVVPpart|<VN-PP>
p340
aVSsub|<ADV-VN>
p341
aVVPpart|<VPP-COORD>
p342
aVCOORD|<VN-PP>
p343
aVSENT|<PONCT-Sint>
p344
aVNP|<COORD-PP>
p345
aVNP|<ET-AP>
p346
aVSsub|<VN-COORD>
p347
aVSsub|<NP-COORD>
p348
aVSrel|<VPinf-COORD>
p349
aVSint|<VN-PONCT>
p350
aVNP|<ADV-AP>
p351
aVVPpart|<ADV-VPinf>
p352
aVVPinf|<ADV-NP>
p353
aVSENT|<NP-Ssub>
p354
aVSint|<PONCT-AP>
p355
aVSsub|<CS-VN>
p356
aVVPinf|<VN-VPinf>
p357
aVSrel|<ADV-Ssub>
p358
aVNP|<PRO-VPpart>
p359
aVVPinf
p360
aVSENT|<VPinf-Sint>
p361
aVPP|<P-NP>
p362
aVPP|<NP-VPpart>
p363
aVNP|<PONCT-Ssub>
p364
aVNP|<NPP-NC>
p365
aVSrel|<ADV-VPinf>
p366
aVVN|<PONCT-VPP>
p367
aVSENT|<AP-NP>
p368
aVSint|<VN-AP>
p369
aVNP|<PREF-NC>
p370
aVSENT|<PONCT-NPP>
p371
aVVPinf|<COORD-PP>
p372
aVSint|<COORD-PONCT>
p373
aVPP|<NP-COORD>
p374
aVSint|<NP-VPpart>
p375
aVSsub|<VPinf-PP>
p376
aVCOORD|<ADV-AP>
p377
aVSENT|<COORD-NP>
p378
aVCOORD|<PONCT-NP>
p379
aVVPpart|<PP-Ssub>
p380
aVSint|<PP-VPinf>
p381
aVSENT|<VPinf-VPpart>
p382
aVSint|<VN-ADV>
p383
aVNP|<NPP-PONCT>
p384
aVVPinf|<VN-AP>
p385
aVSrel|<NP-ADV>
p386
aVAP|<ADV-ADJ>
p387
aVSsub|<VPinf-Ssub>
p388
aVSsub|<ADV-Ssub>
p389
aVAP|<COORD-PP>
p390
aVSint|<NP-VPinf>
p391
aVVN|<VPP-AdP>
p392
aVVPinf|<NP-PP>
p393
aVVN|<V-ADV>
p394
aVNP|<PONCT-NP>
p395
aVVPpart|<ADV-PONCT>
p396
aVSsub|<NP-VN>
p397
aVVPinf|<AP-PONCT>
p398
aVVPinf|<Ssub-VPinf>
p399
aVSENT|<VPinf-COORD>
p400
aVAP|<PP-COORD>
p401
aVVN|<CLO-VS>
p402
aVNP|<DET-NPP>
p403
aVSrel|<PP-NP>
p404
aVSENT|<PONCT-VPinf>
p405
aVSsub|<AP-VPinf>
p406
aVSENT
p407
aVSrel|<ADV-AdP>
p408
aVCOORD|<ADV-PP>
p409
aVCOORD|<NP-PONCT>
p410
aVSsub|<PONCT-PP>
p411
aVSENT|<ADV-PP>
p412
aVPP|<NC-PP>
p413
aVSENT|<PP-VPinf>
p414
aVNP|<DET-DET>
p415
aVSENT|<COORD-PP>
p416
aVVPpart|<NP-PP>
p417
aVVPinf|<PONCT-AP>
p418
aVNP|<NP-VPpart>
p419
aVSrel|<VPpart-PONCT>
p420
aVPP
p421
aVSint|<I-Sint>
p422
aVSrel|<AP-PP>
p423
aVSsub|<AdP-AP>
p424
aVSsub|<VN-VPinf>
p425
aVAdP|<PP-PONCT>
p426
aVSENT|<NP-PP>
p427
aVNP|<AP-PONCT>
p428
aVSENT|<ADV-AdP>
p429
aVVPinf|<PONCT-COORD>
p430
aVSint|<ADV-AP>
p431
aVNP|<ADJ-VPinf>
p432
aVSint|<PP-PONCT>
p433
aVSENT|<VN-VPpart>
p434
aVNP|<ADV-PP>
p435
aVPP|<COORD-PONCT>
p436
aVVPinf|<ADV-Ssub>
p437
aVAP|<PONCT-COORD>
p438
aVNP|<NC-VPpart>
p439
aVSENT|<Sint-PONCT>
p440
aVNP|<NC-NPP>
p441
aVNP|<DET-NC>
p442
aVNP|<AP-Ssub>
p443
aVSsub|<Sint-PONCT>
p444
aVSsub|<PONCT-Sint>
p445
aVSsub|<NP-PONCT>
p446
aVSrel|<AP-NP>
p447
aVPP|<COORD-Ssub>
p448
aVVN|<CLS-ADV>
p449
aVVPpart|<AP-PP>
p450
aVSsub|<PP-PONCT>
p451
aVSENT|<Ssub-VN>
p452
aVVN|<VPP-NP>
p453
aVSENT|<Sint-VN>
p454
aVSsub|<VPpart-PONCT>
p455
aVNP|<VPpart-VPinf>
p456
aVSrel|<PONCT-PP>
p457
aVAP|<AP-PONCT>
p458
aVVPinf|<Sint-PP>
p459
aVSint|<VN-Ssub>
p460
aVSENT|<Ssub-VPpart>
p461
aVVPpart|<PP-PP>
p462
aVPP|<COORD-COORD>
p463
aVSENT|<AdP-Ssub>
p464
aVSENT|<NP-VPinf>
p465
aVVPpart|<ADV-ADV>
p466
aVNP|<ADJ-NC>
p467
aVSint|<PP-PP>
p468
aVSrel|<PP-VPinf>
p469
aVVPinf|<Ssub-PONCT>
p470
aVNP|<NPP-AP>
p471
aVNP|<NP-NPP>
p472
aVSrel|<NP-PP>
p473
aVVPinf|<PP-Ssub>
p474
aVSENT|<PONCT-Ssub>
p475
aVSint|<PP-NP>
p476
aVSsub|<AP-PONCT>
p477
aVNP|<P-NP>
p478
aVSint|<NP-PONCT>
p479
aVNP|<PP-NP>
p480
aVSENT|<PP-VN>
p481
aVVN|<V-CLR>
p482
aVAP|<COORD-PONCT>
p483
aVSENT|<PONCT-NC>
p484
aVVPinf|<PONCT-Sint>
p485
aVSENT|<Ssub-PONCT>
p486
aVNP|<PP-COORD>
p487
aVSrel|<VN-PONCT>
p488
aVNP|<NC-DET>
p489
aVVN|<Sint-PONCT>
p490
aVCOORD|<VN-AdP>
p491
aVNP|<VPpart-Srel>
p492
aVSENT|<PP-AdP>
p493
aVSENT|<PP-PONCT>
p494
aVNP|<NC-AP>
p495
aVCOORD|<CC-Ssub>
p496
aVSENT|<PP-PP>
p497
aVSsub|<PP-COORD>
p498
aVNP|<NP-Srel>
p499
aVSrel|<PONCT-AdP>
p500
aVSsub|<NP-Srel>
p501
aVSrel|<VN-AdP>
p502
aVSENT|<NP-NP>
p503
aVSENT|<PONCT-COORD>
p504
aVAP|<PONCT-VPinf>
p505
aVSsub|<VN-VPpart>
p506
aVSint|<ADV-AdP>
p507
aVCOORD|<PP-NP>
p508
aVSrel|<PP-COORD>
p509
aVSsub|<NP-NP>
p510
aVSsub|<ADV-PONCT>
p511
aVSENT|<Ssub-COORD>
p512
aVCOORD|<VN-PONCT>
p513
aVSENT|<ADV-NP>
p514
aVNP|<Srel-PONCT>
p515
aVNP|<PONCT-Srel>
p516
aVSsub|<AdP-PP>
p517
aVNP|<NPP-ET>
p518
aVSENT|<VPinf-PONCT>
p519
aVPP|<NP-ADV>
p520
aVVN|<CLS-VPP>
p521
aVSsub|<PONCT-ADV>
p522
aVCOORD|<AP-PP>
p523
aVNP|<PONCT-VPinf>
p524
aVNP|<AP-PRO>
p525
aVCOORD|<PONCT-AP>
p526
aVSENT|<VN-AdP>
p527
aVNP|<COORD-VPpart>
p528
aVVPinf|<PP-AdP>
p529
aVSrel|<VN-VPpart>
p530
aVCOORD
p531
aVNP|<ADV-VPinf>
p532
aVPP|<PONCT-NP>
p533
aVSENT|<VPinf-ADV>
p534
aVSrel|<PONCT-COORD>
p535
aVCOORD|<ADV-ADV>
p536
aVSint|<AP-COORD>
p537
aVNP|<PONCT-ADJ>
p538
aVVPpart|<ADV-NP>
p539
aVVPinf|<VN-NP>
p540
aVSint|<NP-COORD>
p541
aVSENT|<NP-VN>
p542
aVCOORD|<PP-VPinf>
p543
aVNP|<PP-NPP>
p544
aVNP|<NP-PP>
p545
aVVN|<PP-VPP>
p546
aVNP|<NC-AdP>
p547
aVNP|<NC-PP>
p548
aVVPpart|<VPpart-PONCT>
p549
aVSrel|<PONCT-VPpart>
p550
aVNP|<PRO-PP>
p551
aVCOORD|<PONCT-VN>
p552
aVSint|<VN-VPinf>
p553
aVPP|<ADV-P+D>
p554
aVVN|<PONCT-V>
p555
aVSENT|<NP-Sint>
p556
aVSrel|<VPinf-NP>
p557
aVSrel|<VN-AP>
p558
aVVPpart|<PP-COORD>
p559
aVNP|<VPpart-COORD>
p560
aVSENT|<ADV-ADV>
p561
aVNP|<COORD-NPP>
p562
aVNP|<COORD-NC>
p563
aVNP|<AP-VPpart>
p564
aVVPpart|<ADV-VPP>
p565
aVVPpart|<VN-COORD>
p566
aVSrel|<VPinf-Ssub>
p567
aVVPinf|<PONCT-PP>
p568
aVVN|<VPP-VPP>
p569
aVNP|<VPpart-AP>
p570
aVVN|<ADV-ADV>
p571
aVVPpart|<PP-NP>
p572
aVNP|<ADV-NP>
p573
aVNP|<ET-PONCT>
p574
aVSENT|<ADV-COORD>
p575
aVCOORD|<VPpart-ADV>
p576
aVNP|<COORD-PONCT>
p577
aVAP|<ADV-PONCT>
p578
aVVN|<VPP-VINF>
p579
aVCOORD|<ADV-VPpart>
p580
aVNP|<ADJ-VPpart>
p581
aVVPpart|<PP-VPinf>
p582
aVSrel|<ADV-PONCT>
p583
aVSrel|<PONCT-AP>
p584
aVNP|<AP-NP>
p585
aVAP|<PONCT-ADV>
p586
aVSsub|<AP-ADV>
p587
aVSsub|<AP-NP>
p588
aVSENT|<PONCT-AdP>
p589
aVSENT|<NP-COORD>
p590
aVVN|<ADV-PONCT>
p591
aVVPpart|<PONCT-COORD>
p592
aVNP|<Srel-PP>
p593
aVSENT|<VN-PP>
p594
aVAP|<ADJ-VPinf>
p595
aVSENT|<AdP-PP>
p596
aVSsub|<Ssub-PONCT>
p597
aVVPinf|<VPinf-PONCT>
p598
aVSENT|<PONCT-VN>
p599
aVVPinf|<AP-Ssub>
p600
aVVPpart|<VPP-PONCT>
p601
aVNP|<NC-COORD>
p602
aVVPpart|<VN-NP>
p603
aVSrel|<PONCT-VPinf>
p604
aVVPinf|<NP-PONCT>
p605
aVNP|<PREF-NPP>
p606
aVNP|<DET-CC>
p607
aVPP|<P+D-NP>
p608
aVSrel|<NP-VPinf>
p609
aVSrel|<AdP-COORD>
p610
aVSENT|<AdP-PONCT>
p611
aVSENT|<ET-NP>
p612
aVSENT|<AP-VPinf>
p613
aVVPpart|<COORD-PONCT>
p614
aVNP|<AP-Srel>
p615
aVVN|<VINF-VINF>
p616
aVSENT|<PP-Ssub>
p617
aVVN|<PONCT-PP>
p618
aVSint|<PONCT-VPpart>
p619
aVNP|<AdP-VPpart>
p620
aVNP|<AP-NPP>
p621
aVPP|<COORD-NP>
p622
aVNP|<Srel-VPpart>
p623
aVSENT|<NP-ADV>
p624
aVVN|<ADV-VINF>
p625
aVNP|<PP-ADV>
p626
aVVPinf|<NP-COORD>
p627
aVNP|<Srel-COORD>
p628
aVNP|<P-PRO>
p629
aVVPinf|<ADV-VPinf>
p630
aVCOORD|<PONCT-COORD>
p631
aVVPpart|<ADV-PP>
p632
aVVPinf|<PONCT-VPinf>
p633
aVSrel|<ADV-NP>
p634
aVSint|<PONCT-ADV>
p635
aVVPinf|<VPinf-COORD>
p636
aVNP|<PP-VPinf>
p637
aVSENT|<NP-AP>
p638
aVSrel|<NP-PONCT>
p639
aVNP|<P-ADJ>
p640
aVNP|<P-DET>
p641
aVVPpart|<PONCT-VPP>
p642
aVSint|<AP-NP>
p643
aVSENT|<PP-AP>
p644
aVSENT|<NC-PONCT>
p645
aVPP|<ADV-PONCT>
p646
aVPP|<NP-NP>
p647
aVSENT|<NP-VPpart>
p648
aVNP|<NC-Srel>
p649
aVAP|<PP-PONCT>
p650
aVNP|<ET-ET>
p651
aVNP|<NPP-NP>
p652
aVSsub|<PP-PP>
p653
aVNP|<ADV-ADJ>
p654
aVNP|<NP-Ssub>
p655
aVSsub|<Ssub-PP>
p656
aVVPpart|<VN-ADV>
p657
aVSint|<PONCT-NP>
p658
aVVN|<VINF-ADV>
p659
aVVPpart|<PONCT-PONCT>
p660
aVNP|<Sint-PONCT>
p661
aVAdP|<ADV-ADV>
p662
aVCOORD|<ADV-NP>
p663
aVSsub|<VPinf-VPinf>
p664
aVSrel
p665
aVSint|<ADV-Ssub>
p666
aVAdP
p667
aVSint|<NP-Srel>
p668
aVSsub|<PONCT-AP>
p669
aVCOORD|<NP-VPinf>
p670
aVSrel|<Ssub-PONCT>
p671
aVPP|<AP-PONCT>
p672
aVAP|<ADJ-PONCT>
p673
aVVPinf|<COORD-PONCT>
p674
aVNP
p675
aVSENT|<PONCT-PP>
p676
aVAP|<ADJ-COORD>
p677
aVCOORD|<Sint-VPinf>
p678
aVNP|<PONCT-AP>
p679
aVCOORD|<NP-NP>
p680
aVPP|<VPpart-COORD>
p681
aVSsub|<COORD-VN>
p682
aVPP|<ADV-NP>
p683
aVSint|<PP-Ssub>
p684
aVSENT|<COORD-COORD>
p685
aVPP|<PONCT-COORD>
p686
aVVPinf|<Sint-PONCT>
p687
aVSrel|<Ssub-COORD>
p688
aVCOORD|<PONCT-Sint>
p689
aVCOORD|<Sint-PONCT>
p690
aVNP|<COORD-Srel>
p691
aVNP|<Ssub-PONCT>
p692
aVNP|<CC-DET>
p693
aVVPinf|<ADV-PONCT>
p694
aVPP|<PONCT-ADV>
p695
aVAP|<VPpart-PONCT>
p696
aVSENT|<Srel-PONCT>
p697
aVSENT|<PONCT-AP>
p698
aVNP|<PONCT-NPP>
p699
aVSint|<NP-PP>
p700
aVSrel|<NP-VN>
p701
aVSsub|<ADV-NP>
p702
aVVN|<V-CLS>
p703
aVSsub|<PONCT-VPinf>
p704
aVVN|<VPR-PONCT>
p705
aVVPpart|<PONCT-VPpart>
p706
aVSint|<ADV-COORD>
p707
aVSint|<VN-AdP>
p708
aVSENT|<AP-ADV>
p709
aVNP|<PP-PP>
p710
aVAP|<COORD-COORD>
p711
aVSrel|<NP-COORD>
p712
aVSint|<AP-Ssub>
p713
aVSint|<PONCT-I>
p714
aVCOORD|<PONCT-VPinf>
p715
aVVN|<CLR-CLO>
p716
aVVPpart|<PONCT-PP>
p717
aVSsub|<PP-AdP>
p718
aVPP|<PP-PONCT>
p719
aVCOORD|<NP-VPpart>
p720
aVVPinf|<PP-PP>
p721
aVSrel|<AP-COORD>
p722
aVNP|<VPinf-PONCT>
p723
aVAP|<PONCT-PP>
p724
aVNP|<ET-NP>
p725
aVAP
p726
aVCOORD|<PP-COORD>
p727
aVVPpart|<PP-ADV>
p728
aVVPinf|<NP-VPinf>
p729
aVAdP|<ADV-Ssub>
p730
aVVPinf|<VN-COORD>
p731
aVSENT|<PONCT-PONCT>
p732
aVSrel|<PONCT-VN>
p733
aVNP|<AP-ADV>
p734
aVVN|<CLO-CLO>
p735
aVSint|<ADV-NP>
p736
aVNP|<DET-PP>
p737
aVCOORD|<VPinf-PP>
p738
aVPP|<PONCT-VPinf>
p739
aVSint|<ADV-VPinf>
p740
aVSsub|<NP-ADV>
p741
aVSENT|<PP-NP>
p742
atp743
Rp744
.