(dp0
VPROWH
p1
(dp2
VNP
p3
F0.0011901428171380566
ssVADJWH
p4
(dp5
VNP
p6
F0.00021002520302436292
sVAP
p7
F0.002896451846488052
ssVDET
p8
(dp9
VNP
p10
F0.00021002520302436292
ssVVIMP
p11
(dp12
VVN
p13
F0.0039937874417572666
ssVPP
p14
(dp15
VSENT
p16
F0.0012101653892698668
ssVVPP
p17
(dp18
VVPpart
p19
F0.14565217391304347
ssVAdP
p20
(dp21
VPP
p22
F0.00012751849018107625
ssVVPR
p23
(dp24
VVN
p25
F0.05325049922343022
ssVPRO
p26
(dp27
VNP
p28
F0.01225147017642117
ssVNC
p29
(dp30
VNP
p31
F0.1458975077009241
sVAP
p32
F0.0003620564808110065
sVSENT
p33
F0.0004033884630899556
ssVNP
p34
(dp35
VNP
p36
F7.000840100812098e-05
sVPP
p37
F0.000510073960724305
sVCOORD
p38
F0.0006273525721455458
sVSENT
p39
F0.11536910044372731
ssVP+PRO
p40
(dp41
VNP
p42
F0.0002800336040324839
ssVADV
p43
(dp44
VAP
p45
F0.000724112961622013
sVAdP
p46
F0.01904761904761905
ssVVN
p47
(dp48
VVPinf
p49
F0.05755395683453238
sVVPpart
p50
F0.007608695652173913
sVSint
p51
F0.02181818181818182
ssVVINF
p52
(dp53
VVN
p54
F0.18437985356112713
ssVAP
p55
(dp56
VSENT
p57
F0.003630496167809601
ssVVS
p58
(dp59
VVN
p60
F0.004215664521854893
ssVCOORD
p61
(dp62
VSENT
p63
F0.0004033884630899556
ssVV
p64
(dp65
VVN
p66
F0.22631462169957844
ssVET
p67
(dp68
VNP
p69
F0.0003500420050406049
ssVADJ
p70
(dp71
VNP
p72
F0.0004900588070568468
sVAP
p73
F0.8265749456915279
ssVP
p74
(dp75
VPP
p76
F0.0006375924509053813
ssVPROREL
p77
(dp78
VNP
p79
F0.028843461215345843
sVPP
p80
F0.005993369038510584
ssVVPpart
p81
(dp82
VSint
p83
F0.0036363636363636364
sVCOORD
p84
F0.0006273525721455458
ssVVPinf
p85
(dp86
VSint
p87
F0.0036363636363636364
sVSENT
p88
F0.00645421540943929
ssVNPP
p89
(dp90
VNP
p91
F0.06048725847101652
sVSENT
p92
F0.0004033884630899556
ss.